(dp0
S''
p1
(dp2
g1
(dp3
g1
(dp4
g1
(dp5
S'ME'
p6
g1
sS'Is_Trap'
p7
g1
sS'MN'
p8
g1
sS'traps'
p9
(dp10
S'Is_Trap'
p11
S'Y'
p12
sN(dp13
S'Trap_Portal_Dest'
p14
(lp15
S'-999'
p16
ag16
ag16
ag16
asS'Trap_Trigger_Phrase'
p17
NsS'trap_class'
p18
S'P'
p19
sS'Trap_Portal_MSG'
p20
NsssS'MD'
p21
g1
sS'keys'
p22
(dp23
sS'items'
p24
(dp25
sS'Trap_Trigger_Phrase'
p26
NsS'Room_title'
p27
g1
sS'MU'
p28
g1
sS'Trap_Portal_Dest'
p29
g15
sS'MW'
p30
g1
sS'objects'
p31
(dp32
sS'MS'
p33
g1
sS'Room_Description'
p34
g1
sS'monsters'
p35
(dp36
sS'Trap_Portal_MSG'
p37
NsssssS'333'
p38
(dp39
S'0'
p40
(dp41
S'1'
p42
(dp43
S'0'
p44
(dp45
S'ME'
p46
S'N'
p47
sS'Is_Trap'
p48
S'Y'
p49
sS'traps'
p50
(dp51
S'Is_Trap'
p52
S'Y'
p53
sS'push button'
p54
(dp55
S'item'
p56
(dp57
sS'Trap_Portal_Dest'
p58
(lp59
S'222'
p60
aS'0'
p61
ag61
ag61
asS'Trap_Trigger_Phrase'
p62
g54
sS'trap_class'
p63
S'P'
p64
sS'Trap_Portal_MSG'
p65
S'You push the button. And are teleported into a room, with your mouth around a doorknob. As you straighten up you are teleported again to Barren Desert'
p66
ssg65
S'You are transported into a room with a door knob in your mouth. After removing the knob, as you stand your a transported again to a desert.'
p67
ssS'MD'
p68
S'N'
p69
sS'keys'
p70
(dp71
S'NK'
p72
g1
sS'DK'
p73
g1
sS'EK'
p74
g1
sS'WK'
p75
g1
sS'SK'
p76
g1
sS'UK'
p77
g1
ssS'items'
p78
(dp79
sS'MN'
p80
S'N'
p81
sS'Room_title'
p82
S'Room of Abandonded Jerrys'
p83
sS'Room_ioo'
p84
S'I'
p85
sS'MU'
p86
S'N'
p87
sS'MW'
p88
S'N'
p89
sS'objects'
p90
(dp91
S'large button'
p92
S'A large button is in the middle of the room. The Jerrys are afraid to push it.'
p93
ssS'MS'
p94
S'Y'
p95
sS'Room_Description'
p96
S'A room of Jerrys whos Ricks never came back.'
p97
sS'monsters'
p98
(dp99
sssg40
(dp100
S'1'
p101
(dp102
S'ME'
p103
S'N'
p104
sS'Is_Trap'
p105
S'Y'
p106
sS'traps'
p107
(dp108
g105
S'y'
p109
sS'smack vending machine'
p110
(dp111
S'Eye Holes'
p112
(dp113
S'item_name'
p114
g112
sS'item_value'
p115
S'500'
p116
sS'item_class'
p117
S'P'
p118
sS'item_use_msg'
p119
S' You quickly eat the EyeHoles. They melt in your mouth.'
p120
sS'item_description'
p121
S'Better eat these before the EyeHole man catches toyou with them.'
p122
ssS'item'
p123
(dp124
sS'eye-holes'
p125
(dp126
g114
g125
sg115
S'200'
p127
sg117
S'p'
p128
sg119
S'You quickly eat the EyeHoles. They melt in your mouth.'
p129
sg121
S'Better eat these before the EyeHole man catches you with them.'
p130
ssS'Trap_Trigger_Phrase'
p131
g110
sS'Trap_Portal_Dest'
p132
(lp133
S'0'
p134
aS'-1'
p135
aS'-1'
p136
aS'1'
p137
asg110
(dp138
S'Trap_Portal_Dest'
p139
(lp140
S'0'
p141
ag141
ag141
ag141
asS'Trap_Trigger_Phrase'
p142
g110
sS'trap_class'
p143
S'i'
p144
sS'Trap_Portal_MSG'
p145
S'You smack the vending machine and some Eye-Holes drop into the tray.'
p146
ssS'Trap_Portal_MSG'
p147
S'You smack the vending machine, and a pack of eye holes fall out into the tray.'
p148
sS'trap_class'
p149
S'I'
p150
sS'SD'
p151
S'X'
p152
sssS'MD'
p153
S'N'
p154
sS'keys'
p155
(dp156
S'NK'
p157
g1
sS'DK'
p158
g1
sS'EK'
p159
g1
sS'WK'
p160
g1
sS'SK'
p161
g1
sS'UK'
p162
g1
ssS'items'
p163
(dp164
sS'MN'
p165
S'N'
p166
sS'Room_title'
p167
S'Jerrys Dining Area.'
p168
sg84
g85
sS'MU'
p169
S'N'
p170
sS'MW'
p171
S'Y'
p172
sS'objects'
p173
(dp174
S'vending machine'
p175
S'A vending machine with Jerry Snacks.'
p176
ssS'MS'
p177
S'Y'
p178
sS'Room_Description'
p179
S'Around you there are Jerrys from all over enjoying their favorite meals.'
p180
sS'monsters'
p181
(dp182
ssg40
(dp183
S'ME'
p184
S'Y'
p185
sS'Is_Trap'
p186
S'y'
p187
sS'MN'
p188
S'L'
p189
sS'traps'
p190
(dp191
g186
g187
sS'talk to front desk'
p192
(dp193
g192
(dp194
S'Trap_Portal_Dest'
p195
(lp196
g40
aS'-1'
p197
aS'-1'
p198
aS'1'
p199
asS'Trap_Trigger_Phrase'
p200
g192
sS'trap_class'
p201
S'P'
p202
sS'Trap_Portal_MSG'
p203
S'You talk to the front desk and they teleport you back home.'
p204
ssS'SD'
p205
S'X'
p206
sssS'MD'
p207
S'N'
p208
sS'keys'
p209
(dp210
S'NK'
p211
S'ACCESS BADGE'
p212
sS'DK'
p213
g1
sS'EK'
p214
S'N'
p215
sS'WK'
p216
S'N'
p217
sS'SK'
p218
S'N'
p219
sS'UK'
p220
S'N'
p221
ssS'items'
p222
(dp223
sS'companions'
p224
(dp225
S'jerry'
p226
(dp227
S'armor'
p228
(dp229
sS'weapon'
p230
(dp231
sS'stats'
p232
(lp233
S'100'
p234
aS'10'
p235
aS'10'
p236
aS'100'
p237
asS'name'
p238
S'Jerry'
p239
sS'description'
p240
S'Its Jerry.'
p241
sssS'Room_title'
p242
S'Jerry-Care. Front Desk.'
p243
sg84
g85
sS'MU'
p244
S'N'
p245
sS'MW'
p246
S'Y'
p247
sS'objects'
p248
(dp249
S'front desk'
p250
S'There is a alien creature at the front desk.'
p251
ssS'MS'
p252
S'Y'
p253
sS'Room_Description'
p254
g1
sS'monsters'
p255
(dp256
ssS'-1'
p257
(dp258
g184
S'Y'
p259
sg186
S'n'
p260
sg190
(dp261
sg207
S'N'
p262
sg209
(dp263
g211
g1
sg213
g1
sg214
g1
sg216
g1
sg218
g1
sg220
g1
ssg222
(dp264
sg188
S'N'
p265
sg242
S'Jerrys game room.'
p266
sg84
g85
sg244
S'N'
p267
sg246
S'N'
p268
sg248
(dp269
sg252
S'Y'
p270
sg254
S'This is the Jerry game room. There are dozen of Jerrys all playing various board games.'
p271
sg255
(dp272
sssS'-1'
p273
(dp274
S'1'
p275
(dp276
S'ME'
p277
S'N'
p278
sS'Is_Trap'
p279
S'n'
p280
sS'traps'
p281
(dp282
sS'MD'
p283
S'N'
p284
sS'keys'
p285
(dp286
S'NK'
p287
g1
sS'DK'
p288
g1
sS'EK'
p289
g1
sS'WK'
p290
g1
sS'SK'
p291
g1
sS'UK'
p292
g1
ssS'items'
p293
(dp294
sS'MN'
p295
S'Y'
p296
sS'Room_title'
p297
S'Beth playroom.'
p298
sg84
g85
sS'MU'
p299
S'N'
p300
sS'MW'
p301
S'Y'
p302
sS'objects'
p303
(dp304
sS'MS'
p305
S'N'
p306
sS'Room_Description'
p307
S'Its a room filled with Beth dolls. I dont want to kno what jerrys do in here.'
p308
sS'monsters'
p309
(dp310
ssg40
(dp311
g184
S'Y'
p312
sg186
g260
sg190
(dp313
sg207
S'N'
p314
sg209
(dp315
g211
g1
sg213
g1
sg214
g1
sg216
g1
sg218
g1
sg220
g1
ssg222
(dp316
sg188
S'Y'
p317
sg242
S'Jerrys Ball Pit.'
p318
sg84
g85
sg244
S'N'
p319
sg246
S'Y'
p320
sg248
(dp321
sg252
S'N'
p322
sg254
S'Its a giant ball pit filled with Jerrys. They are playing with a giant Beth mascot. '
p323
sg255
(dp324
ssS'-1'
p325
(dp326
g184
S'Y'
p327
sg186
S'Y'
p328
sg190
(dp329
S'Is_Trap'
p330
S'Y'
p331
sS'search tv stand'
p332
(dp333
S'Trap_Portal_Dest'
p334
(lp335
S'0'
p336
ag336
ag336
ag336
asS'Trap_Trigger_Phrase'
p337
g332
sS'jerrys tablet'
p338
(dp339
S'item_name'
p340
g338
sS'item_value'
p341
S'5000'
p342
sS'item_class'
p343
S'MW'
p344
sS'item_use_msg'
p345
S'You cant use this, give it to Jerry'
p346
sS'item_description'
p347
S'Jerrys Tablet. Its the only weapon he can use.'
p348
ssS'trap_class'
p349
S'I'
p350
sS'Trap_Portal_MSG'
p351
S'trap'
p352
ssS'Trap_Portal_MSG'
p353
S'You search the tv stand and find Jerrys Tablet.'
p354
ssg207
S'N'
p355
sg209
(dp356
g211
g1
sg213
g1
sg214
g1
sg216
g1
sg218
g1
sg220
g1
ssg222
(dp357
sg188
S'Y'
p358
sg242
S'Jerrys Tv Center'
p359
sg84
g85
sg244
S'N'
p360
sg246
S'N'
p361
sg248
(dp362
S'tv'
p363
S'This TV is on the factory tint setting. Its always too high.'
p364
sg1
g1
ssg252
S'N'
p365
sg254
S'A room with TVs for jerry to adjust the tint settings on and watch Bladerunner directors cut.'
p366
sg255
(dp367
ssssS'monsters'
p368
(dp369
S'hammer-ai'
p370
(dp371
S'stats'
p372
(lp373
I1965
aI586
aI551
asS'name'
p374
g370
sS'description'
p375
S'Your best bug Hammer-ai'
p376
ssS'arachni-beth'
p377
(dp378
g372
(lp379
I2759
aI134
aI912
asg374
g377
sg375
S'An Arcana-Beth.'
p380
ssS'jerry slug'
p381
(dp382
g372
(lp383
I1381
aI260
aI216
asg374
g381
sg375
S'A Jerry Slug.'
p384
ssS'scary terry minion'
p385
(dp386
g372
(lp387
I125
aI33
aI36
asg374
g385
sg375
S'A minion'
p388
ssS'evil beth doll'
p389
(dp390
S'stats'
p391
(lp392
S'1000'
p393
aS'100'
p394
aS'100'
p395
asS'name'
p396
g389
sS'description'
p397
S'A Beth Doll thats been possesed by an evil spirit.'
p398
sssS'items'
p399
(dp400
S'strong health potion'
p401
(dp402
S'item_name'
p403
g401
sS'item_value'
p404
S'55'
p405
sS'item_class'
p406
S'P'
p407
sS'item_description'
p408
S'A big health Potion'
p409
ssS'eye holes'
p410
(dp411
S'item_name'
p412
g410
sS'item_value'
p413
S'200'
p414
sS'item_class'
p415
S'P'
p416
sS'item_use_msg'
p417
S'You eat the Eye-Holes quickly. Watching for the Eye-Hole Man.'
p418
sS'item_description'
p419
S'A package of Eye Holes.'
p420
ssS'portal fluid'
p421
(dp422
g403
g421
sg404
S'14'
p423
sg406
S'PF'
p424
sg408
g421
ssS'big shmeckles'
p425
(dp426
g403
g425
sg404
S'342'
p427
sg406
S'G'
p428
sg408
S'A big Shmeckle!'
p429
ssS'shmeckles'
p430
(dp431
g403
S'some shmeckles'
p432
sg404
S'59'
p433
sg406
g428
sg408
S'A small pile of shmeckles'
p434
ssS'big portal fluid'
p435
(dp436
g403
g435
sg404
S'50'
p437
sg406
g424
sg408
S'A big portal fluid.'
p438
ssS'health potion'
p439
(dp440
g403
g439
sg404
S'29'
p441
sg406
g407
sg408
S'A health Potion'
p442
ssssS'444'
p443
(dp444
S'items'
p445
(dp446
S'strong health potion'
p447
(dp448
S'item_name'
p449
g447
sS'item_value'
p450
S'51'
p451
sS'item_class'
p452
S'P'
p453
sS'item_description'
p454
S'A big health Potion'
p455
ssS'portal fluid'
p456
(dp457
g449
g456
sg450
S'27'
p458
sg452
S'PF'
p459
sg454
g456
ssS'big shmeckles'
p460
(dp461
g449
g460
sg450
S'455'
p462
sg452
S'G'
p463
sg454
S'A big Shmeckle!'
p464
ssS'shmeckles'
p465
(dp466
g449
S'some shmeckles'
p467
sg450
S'99'
p468
sg452
g463
sg454
S'A small pile of shmeckles'
p469
ssS'big portal fluid'
p470
(dp471
g449
g470
sg450
S'30'
p472
sg452
g459
sg454
S'A big portal fluid.'
p473
ssS'health potion'
p474
(dp475
g449
g474
sg450
S'38'
p476
sg452
g453
sg454
S'A health Potion'
p477
sssS'1'
p478
(dp479
g478
(dp480
S'-1'
p481
(dp482
S'ME'
p483
S'N'
p484
sS'Is_Trap'
p485
S'n'
p486
sS'traps'
p487
(dp488
sS'MD'
p489
S'N'
p490
sS'keys'
p491
(dp492
S'NK'
p493
g1
sS'DK'
p494
g1
sS'EK'
p495
g1
sS'WK'
p496
g1
sS'SK'
p497
g1
sS'UK'
p498
S'LVL9 PASSCODE'
p499
ssS'items'
p500
(dp501
sS'MN'
p502
S'N'
p503
sS'Room_title'
p504
S'Level 2 Access Hatch'
p505
sg84
S'I'
p506
sS'MU'
p507
S'L'
p508
sS'MW'
p509
S'N'
p510
sS'objects'
p511
(dp512
sS'MS'
p513
S'N'
p514
sS'Room_Description'
p515
S'The ladder continues up and down. The access hatch for level 2 is sealed shut.'
p516
sS'monsters'
p517
(dp518
ssssS'0'
p519
(dp520
S'1'
p521
(dp522
S'1'
p523
(dp524
S'ME'
p525
S'N'
p526
sS'Is_Trap'
p527
S'n'
p528
sS'traps'
p529
(dp530
sS'MD'
p531
S'N'
p532
sS'keys'
p533
(dp534
S'NK'
p535
g1
sS'DK'
p536
g1
sS'EK'
p537
g1
sS'WK'
p538
g1
sS'SK'
p539
g1
sS'UK'
p540
g1
ssS'items'
p541
(dp542
sS'MN'
p543
S'Y'
p544
sS'Room_title'
p545
S'Long Hallway'
p546
sg84
g506
sS'MU'
p547
S'N'
p548
sS'MW'
p549
S'N'
p550
sS'objects'
p551
(dp552
sS'MS'
p553
S'Y'
p554
sS'Room_Description'
p555
S'Your still in in the long hallway.'
p556
sS'monsters'
p557
(dp558
ssS'-1'
p559
(dp560
S'ME'
p561
S'N'
p562
sS'Is_Trap'
p563
S'n'
p564
sS'traps'
p565
(dp566
sS'MD'
p567
S'N'
p568
sS'keys'
p569
(dp570
S'NK'
p571
g1
sS'DK'
p572
g1
sS'EK'
p573
g1
sS'WK'
p574
g1
sS'SK'
p575
g1
sS'UK'
p576
S'LVL9 PASSCODE'
p577
ssS'items'
p578
(dp579
sS'MN'
p580
S'N'
p581
sS'Room_title'
p582
S'End of HallWay'
p583
sg84
g506
sS'MU'
p584
S'L'
p585
sS'MW'
p586
S'N'
p587
sS'objects'
p588
(dp589
sS'MS'
p590
S'Y'
p591
sS'Room_Description'
p592
S'Your at the end of the hallway. There is a lader leading up to a hatch.'
p593
sS'monsters'
p594
(dp595
sssg519
(dp596
S'1'
p597
(dp598
S'ME'
p599
S'L'
p600
sS'Is_Trap'
p601
S'n'
p602
sS'traps'
p603
(dp604
sS'MD'
p605
S'N'
p606
sS'keys'
p607
(dp608
S'NK'
p609
g1
sS'DK'
p610
g1
sS'EK'
p611
S'LVL9 PASSCODE'
p612
sS'WK'
p613
g1
sS'SK'
p614
g1
sS'UK'
p615
g1
ssS'items'
p616
(dp617
sS'MN'
p618
S'Y'
p619
sS'Room_title'
p620
S'A long Hallway'
p621
sg84
g506
sS'MU'
p622
S'N'
p623
sS'MW'
p624
S'N'
p625
sS'objects'
p626
(dp627
sS'MS'
p628
S'Y'
p629
sS'Room_Description'
p630
S'The Hallway continues to the north and there is a high security door to the west.'
p631
sS'monsters'
p632
(dp633
ssg519
(dp634
g561
S'N'
p635
sg563
g1
sg565
(dp636
sg567
S'N'
p637
sg569
(dp638
g571
g1
sg572
g1
sg573
g1
sg574
g1
sg575
g1
sg576
g1
ssg578
(dp639
sg580
S'N'
p640
sg582
S'Storage bay.'
p641
sg84
g506
sg584
S'N'
p642
sg586
S'Y'
p643
sg588
(dp644
sg590
S'N'
p645
sg592
S'Your in a storage bay on a Federation StarShip.'
p646
sg594
(dp647
ssS'2'
p648
(dp649
S'ME'
p650
S'N'
p651
sS'Is_Trap'
p652
S'n'
p653
sS'traps'
p654
(dp655
sS'MD'
p656
S'N'
p657
sS'keys'
p658
(dp659
S'NK'
p660
g1
sS'DK'
p661
g1
sS'EK'
p662
g1
sS'WK'
p663
g1
sS'SK'
p664
g1
sS'UK'
p665
g1
ssS'items'
p666
(dp667
sS'MN'
p668
S'N'
p669
sS'Room_title'
p670
S'Employee BreakRoom'
p671
sg84
g506
sS'MU'
p672
S'N'
p673
sS'MW'
p674
S'Y'
p675
sS'objects'
p676
(dp677
sS'MS'
p678
S'N'
p679
sS'Room_Description'
p680
S'You walk into the Employee Break Room. Way to keep a low profile.'
p681
sS'monsters'
p682
(dp683
S'federation assassin'
p684
(dp685
S'stats'
p686
(lp687
S'10000'
p688
aS'1000'
p689
aS'1000'
p690
asS'name'
p691
g684
sS'description'
p692
S'A federation assassin on break.'
p693
ssssS'-1'
p694
(dp695
g561
S'Y'
p696
sg563
g564
sg565
(dp697
sg567
S'N'
p698
sg569
(dp699
g571
g1
sg572
g1
sg573
g1
sg574
g1
sg575
g1
sg576
g1
ssg578
(dp700
sg580
S'Y'
p701
sg582
S'Hallway'
p702
sg84
g506
sg584
S'N'
p703
sg586
S'N'
p704
sg588
(dp705
sg590
S'Y'
p706
sg592
S'Your in a hallway on a Federation Ship. Try to blend in.'
p707
sg594
(dp708
sssS'3'
p709
(dp710
S'1'
p711
(dp712
S'ME'
p713
S'N'
p714
sS'Is_Trap'
p715
S'n'
p716
sS'traps'
p717
(dp718
sS'MD'
p719
S'N'
p720
sS'keys'
p721
(dp722
S'NK'
p723
g1
sS'DK'
p724
g1
sS'EK'
p725
g1
sS'WK'
p726
g1
sS'SK'
p727
g1
sS'UK'
p728
g1
ssS'items'
p729
(dp730
S'lvl9 passcode'
p731
(dp732
S'item_value'
p733
S'0'
p734
sS'item_class'
p735
S'k'
p736
sS'item_use_msg'
p737
S'You use the lvl9 passcode.'
p738
sS'item_description'
p739
S'The lvl9 passcode, just what i needed.'
p740
sssS'MN'
p741
S'N'
p742
sS'Room_title'
p743
S'Hidden Room'
p744
sg84
g506
sS'MU'
p745
S'N'
p746
sS'MW'
p747
S'N'
p748
sS'objects'
p749
(dp750
sS'MS'
p751
S'Y'
p752
sS'Room_Description'
p753
S"You've stumbled on a secret federation listening room. They spy on their people here. There are notes on the desk."
p754
sS'monsters'
p755
(dp756
sssS'2'
p757
(dp758
S'1'
p759
(dp760
S'ME'
p761
S'N'
p762
sS'Is_Trap'
p763
S'Y'
p764
sS'traps'
p765
(dp766
g763
S'y'
p767
sS'fix broken switch'
p768
(dp769
S'Trap_Trigger_Phrase'
p770
g768
sS'item'
p771
(dp772
sg768
(dp773
S'Trap_Portal_Dest'
p774
(lp775
S'0'
p776
ag776
ag776
ag776
asS'Trap_Trigger_Phrase'
p777
g768
sS'trap_class'
p778
S'sd'
p779
sS'Trap_Portal_MSG'
p780
S'You fix the broken switch and the wall opens to reveal a secret room.'
p781
ssS'SD'
p782
S'N'
p783
sS'trap_class'
p784
S'sd'
p785
sS'Trap_Portal_MSG'
p786
S'You fix the broken switch. Then give a test run. After the  you activate the switch the wall to the north opens and reveals a hidden room.'
p787
sssS'MD'
p788
S'N'
p789
sS'keys'
p790
(dp791
S'NK'
p792
g1
sS'DK'
p793
g1
sS'EK'
p794
g1
sS'WK'
p795
g1
sS'SK'
p796
g1
sS'UK'
p797
g1
ssS'items'
p798
(dp799
sS'MN'
p800
S'N'
p801
sS'Room_title'
p802
S'End of the long hallway.'
p803
sg84
g506
sS'MU'
p804
S'N'
p805
sS'MW'
p806
S'N'
p807
sS'objects'
p808
(dp809
S'a broken switch adorns the wall to the north.'
p810
S'You look at the broken switch. It looks easy enough to fix. You even have your tool kit.'
p811
ssS'MS'
p812
S'Y'
p813
sS'Room_Description'
p814
S'Your at the end of the long hall way.'
p815
sS'monsters'
p816
(dp817
sssS'-1'
p818
(dp819
g597
(dp820
g599
S'N'
p821
sg601
g602
sg603
(dp822
sg605
S'N'
p823
sg607
(dp824
g609
g1
sg610
g1
sg611
g1
sg613
g1
sg614
g1
sg615
g1
ssg616
(dp825
sg618
S'Y'
p826
sg620
S'A long hallway.'
p827
sg84
g506
sg622
S'N'
p828
sg624
S'Y'
p829
sg626
(dp830
sg628
S'N'
p831
sg630
S'The hallway continues to the west and north.'
p832
sg632
(dp833
ssS'0'
p834
(dp835
S'ME'
p836
S'Y'
p837
sS'Is_Trap'
p838
S'n'
p839
sS'traps'
p840
(dp841
sS'MD'
p842
S'N'
p843
sS'keys'
p844
(dp845
S'NK'
p846
g1
sS'DK'
p847
g1
sS'EK'
p848
g1
sS'WK'
p849
g1
sS'SK'
p850
g1
sS'UK'
p851
g1
ssS'items'
p852
(dp853
sS'MN'
p854
S'N'
p855
sS'Room_title'
p856
S'Hallway '
p857
sg84
g506
sS'MU'
p858
S'N'
p859
sS'MW'
p860
S'Y'
p861
sS'objects'
p862
(dp863
sS'MS'
p864
S'N'
p865
sS'Room_Description'
p866
S'The hallway continues to the East and West. Better not get caught here.'
p867
sS'monsters'
p868
(dp869
ssS'-1'
p870
(dp871
S'ME'
p872
S'Y'
p873
sS'Is_Trap'
p874
g1
sS'traps'
p875
(dp876
sS'MD'
p877
S'N'
p878
sS'keys'
p879
(dp880
S'NK'
p881
g1
sS'DK'
p882
g1
sS'EK'
p883
g1
sS'WK'
p884
g1
sS'SK'
p885
g1
sS'UK'
p886
g1
ssS'items'
p887
(dp888
sS'MN'
p889
S'Y'
p890
sS'Room_title'
p891
S'Hallway'
p892
sg84
g506
sS'MU'
p893
S'N'
p894
sS'MW'
p895
S'N'
p896
sS'objects'
p897
(dp898
sS'MS'
p899
S'N'
p900
sS'Room_Description'
p901
S'The Hallway continues to the North and East.'
p902
sS'monsters'
p903
(dp904
ssssS'3'
p905
(dp906
g478
(dp907
S'-1'
p908
(dp909
g483
S'N'
p910
sg485
g486
sg487
(dp911
sg489
S'Y'
p912
sg491
(dp913
g493
g1
sg494
S'Y'
p914
sg495
g1
sg496
g1
sg497
g1
sg498
S'LVL9 PASSCODE'
p915
ssg500
(dp916
sg502
S'N'
p917
sg504
S'Level 4 Access Hatch'
p918
sg84
g506
sg507
S'L'
p919
sg509
S'N'
p920
sg511
(dp921
sg513
S'N'
p922
sg515
S'The level 4 access hatch, a ladder continues up and down. The enterance to level 4 is sealed.'
p923
sg517
(dp924
ssssS'2'
p925
(dp926
g478
(dp927
S'-1'
p928
(dp929
g483
S'N'
p930
sg485
g486
sg487
(dp931
sg489
S'Y'
p932
sg491
(dp933
g493
g1
sg494
g1
sg495
g1
sg496
g1
sg497
g1
sg498
S'LVL9 PASSCODE'
p934
ssg500
(dp935
sg502
S'N'
p936
sg504
S'Lvl3 Access Hatch'
p937
sg84
g506
sg507
S'L'
p938
sg509
S'N'
p939
sg511
(dp940
sg513
S'N'
p941
sg515
S'The Ladder continues up and down. The entrance to LVL3 is sealed.'
p942
sg517
(dp943
ssssS'5'
p944
(dp945
S'1'
p946
(dp947
S'-1'
p948
(dp949
S'ME'
p950
S'N'
p951
sS'Is_Trap'
p952
S'n'
p953
sS'traps'
p954
(dp955
sS'MD'
p956
S'Y'
p957
sS'keys'
p958
(dp959
S'NK'
p960
S'N'
p961
sS'DK'
p962
g1
sS'EK'
p963
g1
sS'WK'
p964
g1
sS'SK'
p965
g1
sS'UK'
p966
S'LVL9 PASSCODE'
p967
ssS'items'
p968
(dp969
sS'MN'
p970
S'N'
p971
sS'Room_title'
p972
S'Level 6 access hatch'
p973
sg84
g506
sS'MU'
p974
S'L'
p975
sS'MW'
p976
S'N'
p977
sS'objects'
p978
(dp979
sS'MS'
p980
S'N'
p981
sS'Room_Description'
p982
S'The enterance to Level 6 is sealed shut. A ladder continues up and down.'
p983
sS'monsters'
p984
(dp985
ssssS'4'
p986
(dp987
g478
(dp988
S'-1'
p989
(dp990
g483
S'N'
p991
sg485
g486
sg487
(dp992
sg489
S'Y'
p993
sg491
(dp994
g493
g1
sg494
S'Y'
p995
sg495
g1
sg496
g1
sg497
g1
sg498
S'LVL9 PASSCODE'
p996
ssg500
(dp997
sg502
S'N'
p998
sg504
S'Level 5 Access Hatch'
p999
sg84
g506
sg507
S'L'
p1000
sg509
S'N'
p1001
sg511
(dp1002
sg513
S'N'
p1003
sg515
S'The Level 5 enterance is seal shut. A ladder continues up and down.'
p1004
sg517
(dp1005
ssssS'7'
p1006
(dp1007
S'1'
p1008
(dp1009
S'-1'
p1010
(dp1011
S'ME'
p1012
S'N'
p1013
sS'Is_Trap'
p1014
g1
sS'traps'
p1015
(dp1016
sS'MD'
p1017
S'Y'
p1018
sS'keys'
p1019
(dp1020
S'NK'
p1021
g1
sS'DK'
p1022
g1
sS'EK'
p1023
g1
sS'WK'
p1024
g1
sS'SK'
p1025
g1
sS'UK'
p1026
S'LVL9 PASSCODE'
p1027
ssS'items'
p1028
(dp1029
sS'MN'
p1030
S'N'
p1031
sS'Room_title'
p1032
S'Level 8 Access Hatch'
p1033
sg84
g506
sS'MU'
p1034
S'L'
p1035
sS'MW'
p1036
S'N'
p1037
sS'objects'
p1038
(dp1039
sS'MS'
p1040
S'N'
p1041
sS'Room_Description'
p1042
S'The enterance to level 8 is sealed. A ladder continues up and down.'
p1043
sS'monsters'
p1044
(dp1045
ssssS'6'
p1046
(dp1047
g946
(dp1048
S'-1'
p1049
(dp1050
g950
S'N'
p1051
sg952
g953
sg954
(dp1052
sg956
S'Y'
p1053
sg958
(dp1054
g960
S'N'
p1055
sg962
g1
sg963
g1
sg964
g1
sg965
S'N'
p1056
sg966
S'LVL9 PASSCODE'
p1057
ssg968
(dp1058
sg970
S'N'
p1059
sg972
S'Level 7 Access Hatch'
p1060
sg84
g506
sg974
S'L'
p1061
sg976
g1
sg978
(dp1062
sg980
S'N'
p1063
sg982
S'The enterance to level 7 is sealed. A ladder continues up and down.'
p1064
sg984
(dp1065
ssssS'8'
p1066
(dp1067
S'1'
p1068
(dp1069
S'-1'
p1070
(dp1071
S'ME'
p1072
S'N'
p1073
sS'Is_Trap'
p1074
S'n'
p1075
sS'traps'
p1076
(dp1077
sS'MD'
p1078
S'Y'
p1079
sS'keys'
p1080
(dp1081
S'NK'
p1082
S'LVL9 PASSCODE'
p1083
sS'DK'
p1084
g1
sS'EK'
p1085
g1
sS'WK'
p1086
g1
sS'SK'
p1087
g1
sS'UK'
p1088
g1
ssS'items'
p1089
(dp1090
sS'MN'
p1091
S'L'
p1092
sS'Room_title'
p1093
S'Level 9 Access Hatch'
p1094
sg84
g506
sS'MU'
p1095
S'N'
p1096
sS'MW'
p1097
S'N'
p1098
sS'objects'
p1099
(dp1100
sS'MS'
p1101
S'N'
p1102
sS'Room_Description'
p1103
S'The level 9 Access hatch'
p1104
sS'monsters'
p1105
(dp1106
sssS'2'
p1107
(dp1108
S'-1'
p1109
(dp1110
S'ME'
p1111
S'N'
p1112
sS'Is_Trap'
p1113
S'Y'
p1114
sS'traps'
p1115
(dp1116
g1113
S'y'
p1117
sS'install computer virus'
p1118
(dp1119
g1118
(dp1120
S'Trap_Portal_Dest'
p1121
(lp1122
S'0'
p1123
ag1123
ag1123
ag1123
asS'Trap_Trigger_Phrase'
p1124
g1118
sS'trap_class'
p1125
S'P'
p1126
sS'Trap_Portal_MSG'
p1127
S'You install'
p1128
ssS'Trap_Portal_Dest'
p1129
(lp1130
S'0'
p1131
ag1131
ag1131
ag1131
asS'Trap_Trigger_Phrase'
p1132
g1118
sS'item'
p1133
(dp1134
sS'SD'
p1135
S'X'
p1136
sS'trap_class'
p1137
S'P'
p1138
sS'Trap_Portal_MSG'
p1139
S'You install the virus on the computer terminal and it spreads through the federations mainframe, their currency value changed to 0, the empire begins to crumple.'
p1140
sssS'MD'
p1141
S'N'
p1142
sS'keys'
p1143
(dp1144
S'NK'
p1145
g1
sS'DK'
p1146
g1
sS'EK'
p1147
g1
sS'WK'
p1148
g1
sS'SK'
p1149
g1
sS'UK'
p1150
g1
ssS'items'
p1151
(dp1152
sS'MN'
p1153
S'N'
p1154
sS'Room_title'
p1155
S'Lvl 9 Command Center'
p1156
sg84
g506
sS'MU'
p1157
S'N'
p1158
sS'MW'
p1159
S'N'
p1160
sS'objects'
p1161
(dp1162
S'bank of computers'
p1163
S'A bank of computers linked to the federations inter-galactic mainframe. You could load a virus on this and take down the empire.'
p1164
ssS'MS'
p1165
S'Y'
p1166
sS'Room_Description'
p1167
S'You are in the command center. There is a bank of computers along the wall.'
p1168
sS'monsters'
p1169
(dp1170
ssssS'monsters'
p1171
(dp1172
S'hammer-ai'
p1173
(dp1174
S'stats'
p1175
(lp1176
I2153
aI209
aI278
asS'name'
p1177
g1173
sS'description'
p1178
S'Your best bug Hammer-ai'
p1179
ssS'arachni-beth'
p1180
(dp1181
g1175
(lp1182
I1416
aI219
aI871
asg1177
g1180
sg1178
S'An Arcana-Beth.'
p1183
ssS'jerry slug'
p1184
(dp1185
g1175
(lp1186
I1744
aI729
aI928
asg1177
g1184
sg1178
S'A Jerry Slug.'
p1187
ssS'scary terry minion'
p1188
(dp1189
g1175
(lp1190
I129
aI89
aI15
asg1177
g1188
sg1178
S'A minion'
p1191
sssS'store'
p1192
(dp1193
g445
(dp1194
S'strong health potion'
p1195
(dp1196
g450
S'94'
p1197
sg449
g1195
sg84
g506
sg452
g453
sS'item_cost'
p1198
I50
sg454
S'A big health Potion'
p1199
ssS'portal fluid'
p1200
(dp1201
g450
S'23'
p1202
sg449
g1200
sg84
g506
sg452
g459
sg1198
I50
sg454
g1200
ssS'big shmeckles'
p1203
(dp1204
g450
S'312'
p1205
sg449
g1203
sg84
g506
sg452
g463
sg1198
I50
sg454
S'A big Shmeckle!'
p1206
ssg465
(dp1207
g450
S'100'
p1208
sg449
S'some shmeckles'
p1209
sg84
g506
sg452
g463
sg1198
I50
sg454
S'A small pile of shmeckles'
p1210
ssS'big portal fluid'
p1211
(dp1212
g450
S'30'
p1213
sg449
g1211
sg84
g506
sg452
g459
sg1198
I50
sg454
S'A big portal fluid.'
p1214
ssS'health potion'
p1215
(dp1216
g450
S'46'
p1217
sg449
g1215
sg84
g506
sg452
g453
sg1198
I50
sg454
S'A health Potion'
p1218
sssssS'0'
p1219
(dp1220
g1219
(dp1221
S'1'
p1222
(dp1223
S'1'
p1224
(dp1225
S'ME'
p1226
S'N'
p1227
sS'Is_Trap'
p1228
S'Y'
p1229
sS'traps'
p1230
(dp1231
S'Is_Trap'
p1232
S'Y'
p1233
sS'search laundry basket'
p1234
(dp1235
S'Trap_Portal_Dest'
p1236
(lp1237
S'0'
p1238
ag1238
ag1238
ag1238
asS'small cpu'
p1239
(dp1240
S'item_name'
p1241
g1239
sS'item_value'
p1242
g1238
sS'item_class'
p1243
S'CI'
p1244
sS'item_use_msg'
p1245
S"You can't use this, its for crafting."
p1246
sS'item_description'
p1247
S'A small cpu, it might be for a robot.'
p1248
ssS'Trap_Trigger_Phrase'
p1249
g1234
sS'trap_class'
p1250
S'I'
p1251
sS'Trap_Portal_MSG'
p1252
S'trap'
p1253
ssg1252
S'You search the laundry basket and a Small cpu falls out.'
p1254
ssS'MD'
p1255
S'N'
p1256
sS'keys'
p1257
(dp1258
S'NK'
p1259
g1
sS'DK'
p1260
g1
sS'EK'
p1261
g1
sS'WK'
p1262
g1
sS'SK'
p1263
g1
sS'UK'
p1264
g1
ssS'items'
p1265
(dp1266
sS'MN'
p1267
S'N'
p1268
sS'Room_title'
p1269
S'Summers Closet'
p1270
sS'Room_ioo'
p1271
S'I'
p1272
sS'MU'
p1273
S'N'
p1274
sS'MW'
p1275
S'N'
p1276
sS'objects'
p1277
(dp1278
S'laundry basket'
p1279
S'Its a laundry basket, full of laundry, but theres a metalic bit sticking out.'
p1280
ssS'MS'
p1281
S'Y'
p1282
sS'Room_Description'
p1283
S"Summers Closet, you'd better not get caught in here."
p1284
sS'monsters'
p1285
(dp1286
ssS'0'
p1287
(dp1288
S'ME'
p1289
S'N'
p1290
sS'MD'
p1291
S'N'
p1292
sS'MN'
p1293
S'N'
p1294
sS'traps'
p1295
(dp1296
S'Is_Trap'
p1297
S'Y'
p1298
sS'flip hidden switch'
p1299
(dp1300
S'item'
p1301
(dp1302
sS'Trap_Trigger_Phrase'
p1303
g1299
sS'SD'
p1304
S'E'
p1305
sS'trap_class'
p1306
S'SD'
p1307
sS'Trap_Portal_MSG'
p1308
S'trap'
p1309
ssS'search laundry basket'
p1310
(dp1311
g1236
(lp1312
g1238
ag1238
ag1238
ag1238
asg1249
g1310
sS'small robot torso'
p1313
(dp1314
g1241
g1313
sg1242
g1238
sg1243
S'CI'
p1315
sg1245
S"You can't use this its for crafting."
p1316
sg1247
S'A small robot torso.'
p1317
ssg1250
S'I'
p1318
sg1252
g1253
ssN(dp1319
S'Trap_Portal_Dest'
p1320
(lp1321
S'-999'
p1322
ag1322
ag1322
ag1322
asS'Trap_Trigger_Phrase'
p1323
NsS'trap_class'
p1324
S'P'
p1325
sS'Trap_Portal_MSG'
p1326
Nssg1326
S'You search the laundry basket and a small robot torso falls out.'
p1327
ssS'Is_Trap'
p1328
S'Y'
p1329
sS'keys'
p1330
(dp1331
S'NK'
p1332
g1
sS'DK'
p1333
g1
sS'EK'
p1334
g1
sS'WK'
p1335
g1
sS'SK'
p1336
g1
sS'UK'
p1337
g1
ssS'items'
p1338
(dp1339
S'sr-baba'
p1340
(dp1341
S'item_value'
p1342
S'9999'
p1343
sS'item_class'
p1344
S'A'
p1345
sS'item_use_msg'
p1346
S'Now your a bad ass.'
p1347
sS'item_description'
p1348
S'Simple Ricks Body Armor'
p1349
sssS'Trap_Trigger_Phrase'
p1350
NsS'Room_title'
p1351
S'mortys closet'
p1352
sg1271
g1272
sS'MU'
p1353
S'N'
p1354
sS'Trap_Portal_Dest'
p1355
g1321
sS'MW'
p1356
S'N'
p1357
sS'objects'
p1358
(dp1359
S'laundry basket'
p1360
S'A laundry basket, there is laundry with some metalic bits sticking out.'
p1361
ssS'MS'
p1362
S'Y'
p1363
sS'Room_Description'
p1364
S'Mortys Closet'
p1365
sS'monsters'
p1366
(dp1367
S'jerry slug'
p1368
(dp1369
S'stats'
p1370
(lp1371
S'999'
p1372
aS'100'
p1373
aS'300'
p1374
asS'name'
p1375
g1368
sS'description'
p1376
S'jerry is a slug, ew so slimey.'
p1377
sssS'Trap_Portal_MSG'
p1378
Nsssg1219
(dp1379
S'1'
p1380
(dp1381
g6
S'N'
p1382
sg7
S'n'
p1383
sg26
NsS'traps'
p1384
(dp1385
S'Is_Trap'
p1386
S'Y'
p1387
sN(dp1388
S'Trap_Portal_Dest'
p1389
(lp1390
g16
ag16
ag16
ag16
asS'Trap_Trigger_Phrase'
p1391
NsS'trap_class'
p1392
S'P'
p1393
sS'Trap_Portal_MSG'
p1394
Nsssg21
S'N'
p1395
sS'keys'
p1396
(dp1397
S'NK'
p1398
g1
sS'DK'
p1399
g1
sS'EK'
p1400
g1
sS'WK'
p1401
g1
sS'SK'
p1402
g1
sS'UK'
p1403
g1
ssg24
(dp1404
sg8
S'Y'
p1405
sg27
S'Summers Bedroom'
p1406
sg1271
g1272
sg28
S'N'
p1407
sg29
g1390
sg30
S'N'
p1408
sg31
(dp1409
sg33
S'Y'
p1410
sg34
S'Summers Bedroom.'
p1411
sg35
(dp1412
sg37
Nssg1219
(dp1413
S'ME'
p1414
S'N'
p1415
sS'Is_Trap'
p1416
S'Y'
p1417
sS'MN'
p1418
S'L'
p1419
sS'traps'
p1420
(dp1421
S'aw jeeze rick'
p1422
(dp1423
S'Trap_Portal_Dest'
p1424
(lp1425
S'-1'
p1426
aS'0'
p1427
ag1427
ag1427
asS'Trap_Trigger_Phrase'
p1428
g1422
sS'item'
p1429
(dp1430
sS'trap_class'
p1431
S'P'
p1432
sS'Trap_Portal_MSG'
p1433
S'Boom, Your a Pickle. No wait your just in Ricks Lab.'
p1434
ssS'kick bed'
p1435
(dp1436
g1424
(lp1437
S'0'
p1438
ag1438
ag1438
ag1438
asS'Trap_Trigger_Phrase'
p1439
g1435
sS'dirty comic'
p1440
(dp1441
S'item_name'
p1442
g1440
sS'item_value'
p1443
g1438
sS'item_class'
p1444
S'K'
p1445
sS'item_use_msg'
p1446
S'You read the dirty comic.'
p1447
sS'item_description'
p1448
S'A dirty comic'
p1449
ssg1431
S'I'
p1450
sS'Trap_Portal_MSG'
p1451
S'trap'
p1452
ssS'Is_Trap'
p1453
S'Y'
p1454
ssS'MD'
p1455
S'N'
p1456
sS'keys'
p1457
(dp1458
S'NK'
p1459
S'NOOB NOOB STATUE'
p1460
sS'DK'
p1461
g1
sS'EK'
p1462
g1
sS'WK'
p1463
g1
sS'SK'
p1464
g1
sS'UK'
p1465
g1
ssS'items'
p1466
(dp1467
S'noob noob statue'
p1468
(dp1469
S'item_value'
p1470
S'0'
p1471
sS'item_class'
p1472
S'k'
p1473
sS'item_use_msg'
p1474
S'you place noob noob on the pedastool.'
p1475
sS'item_description'
p1476
S'Noob Noob with mop'
p1477
ssS'laser katana'
p1478
(dp1479
S'item_name'
p1480
g1478
sS'item_value'
p1481
S'99999'
p1482
sS'item_class'
p1483
S'MW'
p1484
sS'item_use_msg'
p1485
S'You slice through enemies with ease.'
p1486
sS'item_description'
p1487
S'Ricks Laser Katana'
p1488
ssS'bfg-9k'
p1489
(dp1490
S'item_value'
p1491
S'9999'
p1492
sS'item_class'
p1493
S'W'
p1494
sS'item_use_msg'
p1495
S'boom'
p1496
sS'item_description'
p1497
S'boom your dead'
p1498
sssS'Trap_Trigger_Phrase'
p1499
g1422
sS'Room_title'
p1500
S'Mortys Room'
p1501
sg1271
g1272
sS'MU'
p1502
S'N'
p1503
sS'Trap_Portal_Dest'
p1504
g1425
sS'MW'
p1505
S'N'
p1506
sS'objects'
p1507
(dp1508
S'mortys bed'
p1509
S'Aw Jeeze Rick, dont look in there.'
p1510
ssS'MS'
p1511
S'Y'
p1512
sS'Room_Description'
p1513
S'It smells bad in here. There are comics and laundry all over. There is a bed, and a door to the south.'
p1514
sS'monsters'
p1515
(dp1516
S'scary terry'
p1517
(dp1518
S'stats'
p1519
(lp1520
S'50'
p1521
aS'10'
p1522
aS'10'
p1523
asS'name'
p1524
g1517
sS'description'
p1525
S'In your dreams, bitch.'
p1526
sssS'Trap_Portal_MSG'
p1527
S'none'
p1528
ssS'-1'
p1529
(dp1530
g6
S'N'
p1531
sg7
S'Y'
p1532
sg8
S'N'
p1533
sS'traps'
p1534
(dp1535
S'Is_Trap'
p1536
S'Y'
p1537
sS'search laundry basket'
p1538
(dp1539
g1236
(lp1540
g1238
ag1238
ag1238
ag1238
asg1249
g1538
sS'small tred'
p1541
(dp1542
g1241
g1541
sg1242
g1238
sg1243
S'CI'
p1543
sg1245
S'you cant use this. its a craft item'
p1544
sg1247
S'A small tred, made for a small robot maybe?'
p1545
ssg1250
S'I'
p1546
sg1252
g1253
ssN(dp1547
S'Trap_Portal_Dest'
p1548
(lp1549
g16
ag16
ag16
ag16
asS'Trap_Trigger_Phrase'
p1550
NsS'trap_class'
p1551
S'P'
p1552
sS'Trap_Portal_MSG'
p1553
Nssg1252
S'You search the laundry basket and a small tred fell out.'
p1554
ssg21
S'N'
p1555
sS'keys'
p1556
(dp1557
S'NK'
p1558
S'N'
p1559
sS'DK'
p1560
S'N'
p1561
sS'EK'
p1562
S'N'
p1563
sS'WK'
p1564
S'N'
p1565
sS'SK'
p1566
S'N'
p1567
sS'UK'
p1568
S'N'
p1569
ssg24
(dp1570
sg26
Nsg27
S'Parents Bedroom'
p1571
sg1271
g1272
sg28
S'N'
p1572
sg29
g1549
sg30
S'Y'
p1573
sg31
(dp1574
S'laundry basket'
p1575
S' The laundry basket is full, there seem to be some metalic bits sticking out.'
p1576
ssg33
S'Y'
p1577
sg34
S'The parents bedroom'
p1578
sg35
(dp1579
sg37
NssS'-2'
p1580
(dp1581
S'ME'
p1582
S'Y'
p1583
sg1536
S'n'
p1584
sg1534
(dp1585
sS'MD'
p1586
S'N'
p1587
sg1556
(dp1588
g1558
g1
sg1560
g1
sg1562
g1
sg1564
g1
sg1566
g1
sg1568
g1
ssS'items'
p1589
(dp1590
sS'MN'
p1591
S'N'
p1592
sS'Room_title'
p1593
S'Parents Bathroom'
p1594
sg1271
g1272
sS'MU'
p1595
S'N'
p1596
sS'MW'
p1597
S'N'
p1598
sS'objects'
p1599
(dp1600
sS'MS'
p1601
S'N'
p1602
sS'Room_Description'
p1603
S'Your in your parents bathroom'
p1604
sS'monsters'
p1605
(dp1606
sssS'-1'
p1607
(dp1608
g1380
(dp1609
g6
S'N'
p1610
sg7
g1383
sg8
S'Y'
p1611
sg21
S'Y'
p1612
sg24
(dp1613
sg26
Nsg27
S'Top of Stairs'
p1614
sg1271
g1272
sg28
S'N'
p1615
sg29
(lp1616
g16
ag16
ag16
ag16
asg30
S'Y'
p1617
sg31
(dp1618
sg33
S'N'
p1619
sg34
S'Top of Stairs. Summers room is North. Stairs lead down.'
p1620
sg35
(dp1621
sg37
NssS'0'
p1622
(dp1623
S'ME'
p1624
S'Y'
p1625
sS'Is_Trap'
p1626
S'y'
p1627
sS'Trap_Trigger_Phrase'
p1628
S'jump off walls'
p1629
sS'traps'
p1630
(dp1631
S'Is_Trap'
p1632
S'Y'
p1633
sg1629
(dp1634
S'Trap_Portal_Dest'
p1635
(lp1636
g1622
ag1622
ag1622
ag1622
asS'Trap_Portal_MSG'
p1637
S'You jump of the walls and land in your room.'
p1638
sS'Trap_Trigger_Phrase'
p1639
g1629
sS'trap_class'
p1640
S'P'
p1641
sS'item'
p1642
(dp1643
sssS'MD'
p1644
S'N'
p1645
sS'keys'
p1646
(dp1647
S'NK'
p1648
S'N'
p1649
sS'DK'
p1650
S'N'
p1651
sS'EK'
p1652
S'N'
p1653
sS'WK'
p1654
S'N'
p1655
sS'SK'
p1656
S'N'
p1657
sS'UK'
p1658
S'N'
p1659
ssS'items'
p1660
(dp1661
sS'MN'
p1662
S'Y'
p1663
sS'Room_title'
p1664
S'hallway'
p1665
sg1271
g1272
sS'MU'
p1666
S'N'
p1667
sS'Trap_Portal_Dest'
p1668
g1636
sS'MW'
p1669
S'Y'
p1670
sS'objects'
p1671
(dp1672
sS'MS'
p1673
S'Y'
p1674
sS'Room_Description'
p1675
S'hallway'
p1676
sS'monsters'
p1677
(dp1678
sS'Trap_Portal_MSG'
p1679
g1638
ssS'-1'
p1680
(dp1681
g6
S'Y'
p1682
sg7
g1383
sg8
S'Y'
p1683
sS'traps'
p1684
(dp1685
S'Is_Trap'
p1686
S'Y'
p1687
sN(dp1688
S'Trap_Portal_Dest'
p1689
(lp1690
g16
ag16
ag16
ag16
asS'Trap_Trigger_Phrase'
p1691
NsS'trap_class'
p1692
S'P'
p1693
sS'Trap_Portal_MSG'
p1694
Nsssg21
S'N'
p1695
sS'keys'
p1696
(dp1697
sg24
(dp1698
sg26
Nsg27
S'End of Hallway'
p1699
sg1271
g1272
sg28
S'N'
p1700
sg29
g1690
sg30
S'N'
p1701
sg31
(dp1702
sg33
S'N'
p1703
sg34
S'Your in the end of the hallway. to the north is the parents bedroom.'
p1704
sg35
(dp1705
S'big fly'
p1706
(dp1707
S'stats'
p1708
(lp1709
S'10'
p1710
aS'1'
p1711
ag1711
asS'name'
p1712
g1706
sS'description'
p1713
S'a big fly'
p1714
sssg37
NsssS'-2'
p1715
(dp1716
S'0'
p1717
(dp1718
g1582
S'N'
p1719
sg1536
g1584
sg1534
(dp1720
sg1586
S'N'
p1721
sg1556
(dp1722
g1558
g1
sg1560
g1
sg1562
g1
sg1564
g1
sg1566
g1
sg1568
g1
ssg1589
(dp1723
sg1591
S'Y'
p1724
sg1593
S'Hall Bathroom'
p1725
sg1271
g1272
sg1595
S'N'
p1726
sg1597
S'N'
p1727
sg1599
(dp1728
sg1601
S'N'
p1729
sg1603
S'The hall bathroom'
p1730
sg1605
(dp1731
ssssS'-1'
p1732
(dp1733
g1380
(dp1734
g1380
(dp1735
g6
g1
sg7
g1
sg8
g1
sg21
g1
sg24
(dp1736
sg26
Nsg27
S'f'
p1737
sg1271
g1272
sg28
g1
sg29
(lp1738
g16
ag16
ag16
ag16
asg30
g1
sg31
(dp1739
sg33
g1
sg34
g1
sg35
(dp1740
sg37
NsssS'0'
p1741
(dp1742
g1
(dp1743
g6
g1
sg7
g1
sg8
g1
sg21
g1
sg24
(dp1744
sg26
Nsg27
g1
sg1271
g1272
sg28
g1
sg29
(lp1745
g16
ag16
ag16
ag16
asg30
g1
sg31
(dp1746
sg33
g1
sg34
g1
sg35
(dp1747
sg37
NssS'0'
p1748
(dp1749
S'ME'
p1750
S'N'
p1751
sS'Is_Trap'
p1752
S'n'
p1753
sS'traps'
p1754
(dp1755
sS'MD'
p1756
S'N'
p1757
sS'keys'
p1758
(dp1759
S'NK'
p1760
g1
sS'DK'
p1761
g1
sS'EK'
p1762
g1
sS'WK'
p1763
g1
sS'SK'
p1764
g1
sS'UK'
p1765
g1
ssS'items'
p1766
(dp1767
sS'MN'
p1768
S'N'
p1769
sS'Room_title'
p1770
S'The Dining Room'
p1771
sg1271
g1272
sS'MU'
p1772
S'N'
p1773
sS'MW'
p1774
S'Y'
p1775
sS'objects'
p1776
(dp1777
sS'MS'
p1778
S'Y'
p1779
sS'Room_Description'
p1780
S' You enter the Dining Room. There is a large table covered in a checkered yellow table cloth surrounded by six chairs. On the wall hang several copy cat paintings.'
p1781
sS'monsters'
p1782
(dp1783
ssS'-1'
p1784
(dp1785
S'ME'
p1786
S'Y'
p1787
sS'Is_Trap'
p1788
S'Y'
p1789
sS'traps'
p1790
(dp1791
S'level painting'
p1792
(dp1793
S'item'
p1794
(dp1795
sS'Trap_Portal_MSG'
p1796
S'You level the painting and fall in.'
p1797
sS'Trap_Trigger_Phrase'
p1798
g1792
sS'trap_class'
p1799
S'P'
p1800
sS'Trap_Portal_Dest'
p1801
(lp1802
S'-727'
p1803
aS'0'
p1804
aS'-5'
p1805
aS'-5'
p1806
assS'Is_Trap'
p1807
S'Y'
p1808
ssS'MD'
p1809
S'N'
p1810
sS'keys'
p1811
(dp1812
S'NK'
p1813
g1
sS'DK'
p1814
g1
sS'EK'
p1815
g1
sS'WK'
p1816
g1
sS'SK'
p1817
g1
sS'UK'
p1818
g1
ssS'items'
p1819
(dp1820
sS'MN'
p1821
S'N'
p1822
sS'Room_title'
p1823
S'Bathroom'
p1824
sg1271
g1272
sS'MU'
p1825
S'N'
p1826
sS'MW'
p1827
S'N'
p1828
sS'objects'
p1829
(dp1830
S'Painting'
p1831
S'Its a cheap knock off painting, and its crooked. Quick level it out before someone notices.'
p1832
ssS'MS'
p1833
S'N'
p1834
sS'Room_Description'
p1835
S'The Downstairs Bathroom. A immitation Van Goghe Painting is hanging on the wall.\\'
p1836
sS'monsters'
p1837
(dp1838
sssS'-1'
p1839
(dp1840
g1380
(dp1841
g6
S'N'
p1842
sg7
S'Y'
p1843
sg8
S'N'
p1844
sS'traps'
p1845
(dp1846
S'Is_Trap'
p1847
S'Y'
p1848
sS'Trap_Portal_MSG'
p1849
S'As you adjust the tint, you are surrounded by blue light, and then you find yourself at Jerry-Care.'
p1850
sN(dp1851
S'Trap_Portal_Dest'
p1852
(lp1853
g16
ag16
ag16
ag16
asS'Trap_Trigger_Phrase'
p1854
NsS'trap_class'
p1855
S'P'
p1856
sg1849
NssS'adjust tint'
p1857
(dp1858
S'item'
p1859
(dp1860
sS'Trap_Portal_Dest'
p1861
(lp1862
S'333'
p1863
aS'0'
p1864
ag1864
ag1864
asS'Trap_Trigger_Phrase'
p1865
g1857
sS'trap_class'
p1866
S'P'
p1867
sS'Trap_Portal_MSG'
p1868
S'You adjust the tint, and a blue light envelopes you. Suddenly your in Jerry-Care.'
p1869
sssg21
S'N'
p1870
sS'keys'
p1871
(dp1872
sg24
(dp1873
sg26
Nsg27
S'Living Room'
p1874
sg1271
g1272
sg28
S'Y'
p1875
sg29
g1853
sg30
S'Y'
p1876
sg31
(dp1877
S'tv'
p1878
S'The tv is showing a news story about the presidents bout with cancer. The tint is too high, making him look sicker.'
p1879
ssg33
S'N'
p1880
sg34
S'In the Living room. There is a TV. The Kitchen is West.'
p1881
sg35
(dp1882
sg37
Nssg1741
(dp1883
g6
S'Y'
p1884
sg7
g1383
sg8
S'Y'
p1885
sg1754
(dp1886
g1752
S'Y'
p1887
sN(dp1888
S'Trap_Portal_Dest'
p1889
(lp1890
g16
ag16
ag16
ag16
asS'Trap_Trigger_Phrase'
p1891
NsS'trap_class'
p1892
S'P'
p1893
sS'Trap_Portal_MSG'
p1894
Nsssg21
S'N'
p1895
sg1758
(dp1896
S'NK'
p1897
g1
sS'DK'
p1898
g1
sS'EK'
p1899
g1
sS'WK'
p1900
g1
sS'SK'
p1901
g1
sS'UK'
p1902
g1
ssg24
(dp1903
sg26
Nsg27
S'Kitchen'
p1904
sg1271
g1272
sg28
S'N'
p1905
sg29
g1890
sg30
S'Y'
p1906
sg31
(dp1907
sg33
S'N'
p1908
sg34
S'The Kitchen. The garage is west, the living room is east.'
p1909
sg35
(dp1910
sg37
NssS'-1'
p1911
(dp1912
g6
S'Y'
p1913
sg7
S'Y'
p1914
sg26
S'arange dead flys'
p1915
sS'traps'
p1916
(dp1917
g1915
(dp1918
S'Trap_Portal_Dest'
p1919
(lp1920
S'-1'
p1921
ag1741
ag1741
ag1741
asS'Trap_Portal_MSG'
p1922
S'You are warped to ricks secret lab.'
p1923
sS'Trap_Trigger_Phrase'
p1924
g1915
sS'trap_class'
p1925
S'P'
p1926
sS'item'
p1927
(dp1928
ssS'Is_Trap'
p1929
S'Y'
p1930
sg1252
S'You search the paper work and discover butterbot plans.'
p1931
sS'search top shelf'
p1932
(dp1933
g1236
(lp1934
g1238
ag1238
ag1238
ag1238
asg1249
g1932
sS'small robot arms'
p1935
(dp1936
g1241
g1935
sg1242
g1238
sg1243
S'CI'
p1937
sg1245
S'You cant use this its for crafting.'
p1938
sg1247
S'A small set of arms for a small robot.'
p1939
ssg1250
S'I'
p1940
sg1252
g1253
ssS'search paperwork'
p1941
(dp1942
g1236
(lp1943
g1238
ag1238
ag1238
ag1238
asS'butterbot plans'
p1944
(dp1945
g1241
g1944
sg1242
g1238
sg1243
S'CR'
p1946
sg1245
S'You learn how to craft the ButterBot'
p1947
sg1247
S'Plans for Building a ButterBot'
p1948
ssg1249
g1941
sg1250
S'I'
p1949
sssg21
S'N'
p1950
sS'keys'
p1951
(dp1952
S'NK'
p1953
g1
sS'DK'
p1954
g1
sS'EK'
p1955
g1
sS'WK'
p1956
g1
sS'SK'
p1957
g1
sS'UK'
p1958
g1
ssg24
(dp1959
sg8
S'N'
p1960
sg27
S'The Garage.'
p1961
sg1271
g1272
sg28
S'N'
p1962
sg29
g1920
sg30
S'N'
p1963
sg31
(dp1964
S'dead flys'
p1965
S'These must mean something.'
p1966
sS'workbench'
p1967
S'There are flys on the workbench.'
p1968
sS'large shelf'
p1969
S'A large shelf stuffed with various parts and components. There are some metalic bits on the top shelf.'
p1970
sS'pile of paperwork'
p1971
S'A pile of paper work, maybe theres a design or plan in there.'
p1972
ssg33
S'N'
p1973
sg34
S'Ricks workbench is to the left. The Kitchen is to the   west.'
p1974
sg35
(dp1975
sg37
g1923
ssssS'monsters'
p1976
(dp1977
S'hammer-ai'
p1978
(dp1979
S'stats'
p1980
(lp1981
I1288
aI230
aI861
asS'name'
p1982
g1978
sS'description'
p1983
S'Your best bug Hammer-ai'
p1984
ssS'infinite rick minion'
p1985
(dp1986
S'stats'
p1987
(lp1988
S'1000'
p1989
aS'100'
p1990
aS'100'
p1991
asS'unq_item'
p1992
(dp1993
S'access badge'
p1994
(dp1995
S'item_name'
p1996
g1994
sS'item_value'
p1997
S'0'
p1998
sS'item_class'
p1999
S'K'
p2000
sS'item_use_msg'
p2001
S'You unlock the Citadel Door.'
p2002
sS'item_description'
p2003
S'A Citadel Level 9 Access Badge.'
p2004
ssg1271
g1272
ssS'drop_unq'
p2005
S'Y'
p2006
sS'description'
p2007
S'A Minion of The Infinite Rick'
p2008
sS'name'
p2009
g1985
ssS'arachni-beth'
p2010
(dp2011
g1980
(lp2012
I1818
aI774
aI926
asg1982
g2010
sg1983
S'An Arcana-Beth.'
p2013
ssS'jerry slug'
p2014
(dp2015
g1980
(lp2016
I2864
aI642
aI865
asg1982
g2014
sg1983
S'A Jerry Slug.'
p2017
ssS'scary terry minion'
p2018
(dp2019
g1980
(lp2020
I242
aI58
aI21
asg1982
g2018
sg1983
S'A minion'
p2021
sssS'store'
p2022
(dp2023
S'items'
p2024
(dp2025
S'strong health potion'
p2026
(dp2027
S'item_value'
p2028
S'57'
p2029
sS'item_name'
p2030
g2026
sg1271
g1272
sS'item_class'
p2031
S'P'
p2032
sS'item_cost'
p2033
I50
sS'item_description'
p2034
S'A big health Potion'
p2035
ssS'portal fluid'
p2036
(dp2037
g2028
S'20'
p2038
sg2030
g2036
sg1271
g1272
sg2031
S'PF'
p2039
sg2033
I50
sg2034
g2036
ssS'big shmeckles'
p2040
(dp2041
g2028
S'107'
p2042
sg2030
g2040
sg1271
g1272
sg2031
S'G'
p2043
sg2033
I50
sg2034
S'A big Shmeckle!'
p2044
ssS'shmeckles'
p2045
(dp2046
g2028
S'37'
p2047
sg2030
S'some shmeckles'
p2048
sg1271
g1272
sg2031
g2043
sg2033
I50
sg2034
S'A small pile of shmeckles'
p2049
ssS'big portal fluid'
p2050
(dp2051
g2028
S'33'
p2052
sg2030
g2050
sg1271
g1272
sg2031
g2039
sg2033
I50
sg2034
S'A big portal fluid.'
p2053
ssS'health potion'
p2054
(dp2055
g2028
S'25'
p2056
sg2030
g2054
sg1271
g1272
sg2031
g2032
sg2033
I50
sg2034
S'A health Potion'
p2057
ssssS'items'
p2058
(dp2059
S'strong health potion'
p2060
(dp2061
S'item_name'
p2062
g2060
sS'item_value'
p2063
S'70'
p2064
sS'item_class'
p2065
g19
sS'item_description'
p2066
S'A big health Potion'
p2067
ssS'schechuan sauce recipe'
p2068
(dp2069
S'item_value'
p2070
S'0'
p2071
sS'item_use_msg'
p2072
S'You learn rick schechuan sauce recipe.'
p2073
sS'item_name'
p2074
g2068
sS'recipe'
p2075
(dp2076
S'schechuan sauce'
p2077
(dp2078
S'item_value'
p2079
S'200'
p2080
sS'item_use_msg'
p2081
S'schechuan sauce'
p2082
sS'item_class'
p2083
S'p'
p2084
sS'req_c_items'
p2085
(lp2086
I2
aI2
asS'req_items'
p2087
(lp2088
S'portal fluid'
p2089
aS'health potion'
p2090
asS'item_description'
p2091
S'schechuan sauce'
p2092
ssg1271
g1272
ssS'item_class'
p2093
S'cr'
p2094
sS'item_description'
p2095
S'a recipe for schechuan sauce. ricks really put in time on this.'
p2096
ssS'ammo pack'
p2097
(dp2098
S'item_name'
p2099
g2097
sS'item_value'
p2100
S'50'
p2101
sS'item_class'
p2102
S'ammo'
p2103
sS'item_use_msg'
p2104
S'its ammo'
p2105
sS'item_description'
p2106
S'ammo pack'
p2107
ssS'portal fluid'
p2108
(dp2109
g2062
g2108
sg2063
S'11'
p2110
sg2065
S'PF'
p2111
sg2066
g2108
ssS'shmeckles'
p2112
(dp2113
g2062
S'some shmeckles'
p2114
sg2063
S'73'
p2115
sg2065
S'G'
p2116
sg2066
S'A small pile of shmeckles'
p2117
ssS'big shmeckles'
p2118
(dp2119
g2062
g2118
sg2063
S'386'
p2120
sg2065
g2116
sg2066
S'A big Shmeckle!'
p2121
ssS'morty sauce recipe'
p2122
(dp2123
S'item_value'
p2124
S'0'
p2125
sS'item_use_msg'
p2126
S'You learn how to make morty sauce.'
p2127
sS'item_name'
p2128
g2122
sS'recipe'
p2129
(dp2130
S'MORTY SAUCE PACKET'
p2131
(dp2132
S'item_value'
p2133
S'0'
p2134
sS'item_class'
p2135
S'ci'
p2136
sS'item_use_msg'
p2137
S'Cant use it. its for crafting.'
p2138
sS'req_items'
p2139
(lp2140
S'dirty comic'
p2141
aS'portal fluid'
p2142
asS'item_description'
p2143
S'A packet of morty sauce'
p2144
ssg1271
g1272
ssS'item_class'
p2145
S'CR'
p2146
sS'item_description'
p2147
S'Recipe for Morty sauce.'
p2148
ssS'big portal fluid'
p2149
(dp2150
g2062
g2149
sg2063
S'30'
p2151
sg2065
g2111
sg2066
S'A big portal fluid.'
p2152
ssS'health potion'
p2153
(dp2154
g2062
g2153
sg2063
S'40'
p2155
sg2065
g19
sg2066
S'A health Potion'
p2156
ssssS'-1'
p2157
(dp2158
g1219
(dp2159
g1380
(dp2160
S'3'
p2161
(dp2162
g6
S'N'
p2163
sg7
g1383
sg26
NsS'traps'
p2164
(dp2165
S'Is_Trap'
p2166
S'Y'
p2167
sN(dp2168
S'Trap_Portal_Dest'
p2169
(lp2170
g16
ag16
ag16
ag16
asS'Trap_Trigger_Phrase'
p2171
NsS'trap_class'
p2172
S'P'
p2173
sS'Trap_Portal_MSG'
p2174
Nsssg21
S'N'
p2175
sS'keys'
p2176
(dp2177
sg24
(dp2178
S'portal gun'
p2179
(dp2180
S'item_value'
p2181
g1741
sS'item_class'
p2182
S'PG'
p2183
sS'item_use_msg'
p2184
S'I said dont touch morty.'
p2185
sS'item_description'
p2186
S'Ricks Portal Gun, Dont Touch.'
p2187
ssS'portal fluid'
p2188
(dp2189
g2181
S'100'
p2190
sg2182
S'PF'
p2191
sg2184
S'You fill the Portal Gun with Fluid.'
p2192
sg2186
S'Portal Fluid'
p2193
sssg8
S'N'
p2194
sg27
S'Secret Lab'
p2195
sg84
S'I'
p2196
sg28
S'N'
p2197
sg29
g2170
sg30
S'N'
p2198
sg31
(dp2199
sg33
S'N'
p2200
sg34
S'Your in a secret room. it seems like there is no exit.'
p2201
sg35
(dp2202
sg37
Nsssg1219
(dp2203
g1380
(dp2204
g6
S'Y'
p2205
sg7
g1383
sg8
S'N'
p2206
sg21
S'N'
p2207
sg24
(dp2208
sg26
Nsg27
S'Last storage.'
p2209
sg84
g2196
sg28
S'N'
p2210
sg29
(lp2211
g16
ag16
ag16
ag16
asg30
S'N'
p2212
sg31
(dp2213
sg33
S'Y'
p2214
sg34
S'Even more creepy stuff.'
p2215
sg35
(dp2216
sg37
Nssg1219
(dp2217
S'ME'
p2218
S'Y'
p2219
sS'Is_Trap'
p2220
S'y'
p2221
sS'Trap_Trigger_Phrase'
p2222
S'arange dead flys'
p2223
sg2164
(dp2224
g2223
(dp2225
g2169
(lp2226
S'-1'
p2227
aS'0'
p2228
aS'1'
p2229
aS'3'
p2230
asg2171
g2223
sg2172
g2173
sg2174
S'Boom, your a pickle.'
p2231
ssg2166
g2167
ssS'MD'
p2232
S'N'
p2233
sg2176
(dp2234
sS'items'
p2235
(dp2236
sS'MN'
p2237
S'N'
p2238
sS'Room_title'
p2239
S'Ricks Lab'
p2240
sg84
g2196
sS'MU'
p2241
S'N'
p2242
sS'Trap_Portal_Dest'
p2243
g2226
sS'MW'
p2244
S'N'
p2245
sS'objects'
p2246
(dp2247
S'dead flys'
p2248
S'There are five dead flys on the work bench'
p2249
sS'work bench'
p2250
S'Its my work bench morty. There are some dead flys on the top of the work bench.'
p2251
ssS'MS'
p2252
S'Y'
p2253
sS'Room_Description'
p2254
S'Its My Lab, Wub-Ah-Dub-Dub. Theres a workbench on one wall.'
p2255
sg35
(dp2256
sg37
g2231
sssS'-1'
p2257
(dp2258
g1380
(dp2259
g6
S'N'
p2260
sg7
g1383
sg8
S'Y'
p2261
sg21
S'N'
p2262
sg24
(dp2263
sg26
Nsg27
S'More Storage.'
p2264
sg84
g2196
sg28
S'N'
p2265
sg29
(lp2266
g16
ag16
ag16
ag16
asg30
S'Y'
p2267
sg31
(dp2268
sg33
S'N'
p2269
sg34
S'More creepy stuff. '
p2270
sg35
(dp2271
sg37
Nssg1741
(dp2272
g6
S'Y'
p2273
sg7
g1383
sg8
S'Y'
p2274
sg21
S'N'
p2275
sg24
(dp2276
sg26
Nsg27
S'Ricks Storage.'
p2277
sg84
g2196
sg28
S'N'
p2278
sg29
(lp2279
g16
ag16
ag16
ag16
asg30
S'N'
p2280
sg31
(dp2281
sg33
S'N'
p2282
sg34
S'Its full of creepy stuff.'
p2283
sg35
(dp2284
sg37
Nssssg1976
(dp2285
g1978
(dp2286
g1980
(lp2287
I1397
aI486
aI230
asg1982
g1978
sg1983
g1984
ssg2010
(dp2288
g1980
(lp2289
I2042
aI334
aI104
asg1982
g2010
sg1983
g2013
ssg2014
(dp2290
g1980
(lp2291
I1661
aI649
aI116
asg1982
g2014
sg1983
g2017
ssS'auto sentry'
p2292
(dp2293
S'stats'
p2294
(lp2295
S'1000'
p2296
aS'100'
p2297
aS'100'
p2298
asS'name'
p2299
g2292
sS'description'
p2300
S'An automatic security sentry, with lasers.'
p2301
ssg2018
(dp2302
g1980
(lp2303
I252
aI43
aI57
asg1982
g2018
sg1983
g2021
sssg2058
(dp2304
g2060
(dp2305
g2062
g2060
sg2063
S'82'
p2306
sg2065
g19
sg2066
g2067
ssg2108
(dp2307
g2062
g2108
sg2063
S'11'
p2308
sg2065
g2111
sg2066
g2108
ssg2118
(dp2309
g2062
g2118
sg2063
S'310'
p2310
sg2065
g2116
sg2066
g2121
ssg2112
(dp2311
g2062
g2114
sg2063
S'65'
p2312
sg2065
g2116
sg2066
g2117
ssg2149
(dp2313
g2062
g2149
sg2063
S'42'
p2314
sg2065
g2111
sg2066
g2152
ssg2153
(dp2315
g2062
g2153
sg2063
S'46'
p2316
sg2065
g19
sg2066
g2156
ssssS'-727'
p2317
(dp2318
S'0'
p2319
(dp2320
S'-5'
p2321
(dp2322
S'-5'
p2323
(dp2324
S'ME'
p2325
S'Y'
p2326
sS'Is_Trap'
p2327
S'y'
p2328
sS'traps'
p2329
(dp2330
g2327
g2328
sS'unlevel painting'
p2331
(dp2332
S'Trap_Portal_Dest'
p2333
(lp2334
g2319
aS'-1'
p2335
ag2319
aS'-1'
p2336
asS'Trap_Trigger_Phrase'
p2337
g2331
sS'SD'
p2338
S'X'
p2339
sS'trap_class'
p2340
S'P'
p2341
sS'Trap_Portal_MSG'
p2342
S'When you unlevel the painting, you fall in and are back in the Downstairs bathroom.'
p2343
sssS'MD'
p2344
S'N'
p2345
sS'keys'
p2346
(dp2347
S'NK'
p2348
g1
sS'DK'
p2349
g1
sS'EK'
p2350
g1
sS'WK'
p2351
g1
sS'SK'
p2352
g1
sS'UK'
p2353
g1
ssS'items'
p2354
(dp2355
sS'MN'
p2356
S'N'
p2357
sS'Room_title'
p2358
S'Inside the painting.'
p2359
sS'Room_ioo'
p2360
S'i'
p2361
sS'MU'
p2362
S'N'
p2363
sS'MW'
p2364
S'N'
p2365
sS'objects'
p2366
(dp2367
S'painting of bathroom'
p2368
S"Its a painting of Morty's downstairs bathroom. It is perfectly level. Ahh, perfect level."
p2369
ssS'MS'
p2370
S'N'
p2371
sS'Room_Description'
p2372
S"Your inside the knock off painting in the bathroom. It looks like there is a whole world of paintings in here. On the wall you see a painting of what looks like the downstairs bathroom in Morty's house."
p2373
sS'monsters'
p2374
(dp2375
ssS'-4'
p2376
(dp2377
S'ME'
p2378
S'Y'
p2379
sS'Is_Trap'
p2380
S'y'
p2381
sS'traps'
p2382
(dp2383
g2380
g2381
sS'open door in floor'
p2384
(dp2385
S'Trap_Portal_Dest'
p2386
(lp2387
S'0'
p2388
ag2388
ag2388
ag2388
asS'Trap_Portal_MSG'
p2389
S'You open the door in the floor and fall in.'
p2390
sS'Trap_Trigger_Phrase'
p2391
g2384
sS'trap_class'
p2392
S'SD'
p2393
sS'SD'
p2394
S'd'
p2395
sssS'MD'
p2396
S'N'
p2397
sS'keys'
p2398
(dp2399
S'NK'
p2400
g1
sS'DK'
p2401
g1
sS'EK'
p2402
g1
sS'WK'
p2403
g1
sS'SK'
p2404
g1
sS'UK'
p2405
g1
ssS'items'
p2406
(dp2407
sS'MN'
p2408
S'N'
p2409
sS'Room_title'
p2410
S'Deeper in the painting.'
p2411
sS'Room_ioo'
p2412
S'i'
p2413
sS'MU'
p2414
S'N'
p2415
sS'MW'
p2416
S'Y'
p2417
sS'objects'
p2418
(dp2419
sS'MS'
p2420
S'N'
p2421
sS'Room_Description'
p2422
S'This room looks escher-esc with doors in the floor and celing. staircases that seem to go continuously up or down, but remain level. And a pair of hands drawing themselves.'
p2423
sS'monsters'
p2424
(dp2425
S'giant hands'
p2426
(dp2427
S'stats'
p2428
(lp2429
S'100000'
p2430
aS'10000'
p2431
aS'10000'
p2432
asS'name'
p2433
g2426
sS'description'
p2434
S'Its a Giant pair of Escher Hands, and they are drawing in on you.'
p2435
ssssS'-1'
p2436
(dp2437
S'ME'
p2438
S'N'
p2439
sS'Is_Trap'
p2440
S'Y'
p2441
sS'traps'
p2442
(dp2443
g2440
S'y'
p2444
sS'enter shape of interest'
p2445
(dp2446
S'Trap_Portal_MSG'
p2447
S'As you enter the shape of interest, a force field is engaged to keep you out, from beneath the shape a door opens and presents you with the abrstract shape you liked, only small enough for your pocket.'
p2448
sS'Trap_Trigger_Phrase'
p2449
g2445
sS'Trap_Portal_Dest'
p2450
(lp2451
S'0'
p2452
ag2452
ag2452
ag2452
asS'abstract shape'
p2453
(dp2454
S'item_name'
p2455
g2453
sS'item_value'
p2456
S'0'
p2457
sS'item_class'
p2458
S'K'
p2459
sS'item_use_msg'
p2460
S"You can't just use an abstract shape."
p2461
sS'item_description'
p2462
S'its the abstract shape from earlier, only smaller, looking at it fills you with longing, and at the same time makes you feel complete.'
p2463
ssS'trap_class'
p2464
S'I'
p2465
sS'SD'
p2466
S'X'
p2467
sssS'MD'
p2468
S'N'
p2469
sS'keys'
p2470
(dp2471
S'NK'
p2472
g1
sS'DK'
p2473
g1
sS'EK'
p2474
g1
sS'WK'
p2475
g1
sS'SK'
p2476
g1
sS'UK'
p2477
g1
ssS'items'
p2478
(dp2479
sS'MN'
p2480
S'N'
p2481
sS'Room_title'
p2482
S'Abstract paiting.'
p2483
sS'Room_ioo'
p2484
S'i'
p2485
sS'MU'
p2486
S'N'
p2487
sS'MW'
p2488
S'Y'
p2489
sS'objects'
p2490
(dp2491
S'shape of interest'
p2492
S'You approach the shape that intrests you, youre at once filled with longing and somehow complete.'
p2493
ssS'MS'
p2494
S'N'
p2495
sS'Room_Description'
p2496
S'Your now in an abstract paiting. It just seems to be colors and shapes. but one calls to you.'
p2497
sS'monsters'
p2498
(dp2499
ssS'-3'
p2500
(dp2501
S'ME'
p2502
S'Y'
p2503
sS'Is_Trap'
p2504
S'Y'
p2505
sS'traps'
p2506
(dp2507
S'reach for stars'
p2508
(dp2509
S'Trap_Trigger_Phrase'
p2510
g2508
sS'Fallen Star'
p2511
(dp2512
S'item_name'
p2513
g2511
sS'item_value'
p2514
S'9999999'
p2515
sS'item_class'
p2516
S'W'
p2517
sS'item_use_msg'
p2518
S'You arm your self with the '
p2519
sS'item_description'
p2520
S'A fallen star, it glows and crackles with the energy of a thousands suns, lets hit people with it.'
p2521
ssS'Trap_Portal_Dest'
p2522
(lp2523
S'0'
p2524
ag2524
ag2524
ag2524
asS'SD'
p2525
S'X'
p2526
sS'trap_class'
p2527
S'I'
p2528
sS'Trap_Portal_MSG'
p2529
S'When you reach for the stars one falls in  your hand'
p2530
ssg2504
S'y'
p2531
ssS'MD'
p2532
S'N'
p2533
sS'keys'
p2534
(dp2535
S'NK'
p2536
g1
sS'DK'
p2537
g1
sS'EK'
p2538
g1
sS'WK'
p2539
g1
sS'SK'
p2540
g1
sS'UK'
p2541
g1
ssS'items'
p2542
(dp2543
sS'MN'
p2544
S'Y'
p2545
sS'Room_title'
p2546
S'stary night'
p2547
sS'Room_ioo'
p2548
g2524
sS'MU'
p2549
S'N'
p2550
sS'MW'
p2551
S'Y'
p2552
sS'objects'
p2553
(dp2554
sS'MS'
p2555
S'N'
p2556
sS'Room_Description'
p2557
S'You appear to be in stary night. all around you are impressionistic stars.'
p2558
sS'monsters'
p2559
(dp2560
ssS'-2'
p2561
(dp2562
S'ME'
p2563
S'Y'
p2564
sS'Is_Trap'
p2565
S'Y'
p2566
sS'traps'
p2567
(dp2568
g2565
S'y'
p2569
sS'paint a picture'
p2570
(dp2571
S'Trap_Trigger_Phrase'
p2572
g2570
sS'Trap_Portal_Dest'
p2573
(lp2574
S'0'
p2575
ag2575
ag2575
ag2575
asS'Enchanced Body Armor'
p2576
(dp2577
S'item_name'
p2578
g2576
sS'item_value'
p2579
S'99999999'
p2580
sS'item_class'
p2581
S'A'
p2582
sS'item_use_msg'
p2583
S'You wear the armor.'
p2584
sS'item_description'
p2585
S'Its a set of enchanced body armor, you always were a good painter.'
p2586
ssS'SD'
p2587
S'X'
p2588
sS'trap_class'
p2589
S'I'
p2590
sS'Trap_Portal_MSG'
p2591
S'You paint a picture of enhanced body armor.'
p2592
sssS'MD'
p2593
S'N'
p2594
sS'keys'
p2595
(dp2596
S'NK'
p2597
g1
sS'DK'
p2598
g1
sS'EK'
p2599
g1
sS'WK'
p2600
g1
sS'SK'
p2601
g1
sS'UK'
p2602
g1
ssS'items'
p2603
(dp2604
sS'MN'
p2605
S'N'
p2606
sS'Room_title'
p2607
S'A blank canvas.'
p2608
sS'Room_ioo'
p2609
S'I'
p2610
sS'MU'
p2611
S'N'
p2612
sS'MW'
p2613
S'Y'
p2614
sS'objects'
p2615
(dp2616
S'paints'
p2617
S'Its a set of paints and paint brushes.'
p2618
ssS'MS'
p2619
S'N'
p2620
sS'Room_Description'
p2621
S'This room is completely blank, theres some paints on the floor in the corner.'
p2622
sS'monsters'
p2623
(dp2624
sssS'-4'
p2625
(dp2626
S'-3'
p2627
(dp2628
S'ME'
p2629
S'N'
p2630
sS'Is_Trap'
p2631
S'y'
p2632
sS'traps'
p2633
(dp2634
g2631
g2632
sS'eat food'
p2635
(dp2636
S'item'
p2637
(dp2638
sS'Trap_Trigger_Phrase'
p2639
g2635
sS'Trap_Portal_Dest'
p2640
(lp2641
S'-727'
p2642
aS'0'
p2643
aS'-5'
p2644
aS'-3'
p2645
asS'SD'
p2646
S'X'
p2647
sS'trap_class'
p2648
S'P'
p2649
sS'Trap_Portal_MSG'
p2650
S'When you try to eat the food Judas and Peter get up to escort you out of the room, to the south.'
p2651
sssS'MD'
p2652
S'N'
p2653
sS'keys'
p2654
(dp2655
S'NK'
p2656
S'ABSTRACT SHAPE'
p2657
sS'DK'
p2658
g1
sS'EK'
p2659
g1
sS'WK'
p2660
g1
sS'SK'
p2661
g1
sS'UK'
p2662
g1
ssS'items'
p2663
(dp2664
sS'MN'
p2665
S'L'
p2666
sS'Room_title'
p2667
S'The Last Supper.'
p2668
sS'Room_ioo'
p2669
S'i'
p2670
sS'MU'
p2671
S'N'
p2672
sS'MW'
p2673
S'N'
p2674
sS'objects'
p2675
(dp2676
S'The supper table'
p2677
g1
ssS'MS'
p2678
S'Y'
p2679
sS'Room_Description'
p2680
S'You see Jebus and his twelve disciples at a table. Behind them is a locked door. If only you had a key, that was the abstract shape of the lock.'
p2681
sS'monsters'
p2682
(dp2683
sssS'-1'
p2684
(dp2685
S'-5'
p2686
(dp2687
S'ME'
p2688
S'N'
p2689
sS'Is_Trap'
p2690
S'Y'
p2691
sS'traps'
p2692
(dp2693
S'Is_Trap'
p2694
S'Y'
p2695
sS'press button'
p2696
(dp2697
S'item'
p2698
(dp2699
sS'Trap_Portal_Dest'
p2700
(lp2701
S'0'
p2702
ag2702
ag2702
ag2702
asS'Trap_Trigger_Phrase'
p2703
g2696
sS'trap_class'
p2704
S'P'
p2705
sS'Trap_Portal_MSG'
p2706
S'You press the button and are teleported home in a large wave of light.'
p2707
sssS'MD'
p2708
S'Y'
p2709
sS'keys'
p2710
(dp2711
S'NK'
p2712
g1
sS'DK'
p2713
g1
sS'EK'
p2714
g1
sS'WK'
p2715
g1
sS'SK'
p2716
g1
sS'UK'
p2717
g1
ssS'items'
p2718
(dp2719
sS'MN'
p2720
S'N'
p2721
sS'Room_title'
p2722
S'Teleport Room'
p2723
sS'Room_ioo'
p2724
S'I'
p2725
sS'MU'
p2726
S'N'
p2727
sS'MW'
p2728
S'N'
p2729
sS'objects'
p2730
(dp2731
S'Teleport Booth'
p2732
S"There is a booth with a large button, and words you cant read, but as you look at them, they begin to become clear. it says 'Press button to go Home.'"
p2733
ssS'MS'
p2734
S'N'
p2735
sS'Room_Description'
p2736
S"This is a large room with teleport booths, you can see other vistor's use them to return home."
p2737
sS'monsters'
p2738
(dp2739
sssS'-3'
p2740
(dp2741
S'-4'
p2742
(dp2743
S'ME'
p2744
S'Y'
p2745
sS'Is_Trap'
p2746
S'n'
p2747
sS'traps'
p2748
(dp2749
sS'MD'
p2750
S'N'
p2751
sS'keys'
p2752
(dp2753
S'NK'
p2754
S'MELTED CLOCK'
p2755
sS'DK'
p2756
S'N'
p2757
sS'EK'
p2758
S'N'
p2759
sS'WK'
p2760
S'N'
p2761
sS'SK'
p2762
S'N'
p2763
sS'UK'
p2764
S'N'
p2765
ssS'items'
p2766
(dp2767
sS'MN'
p2768
S'L'
p2769
sS'Room_title'
p2770
S'The Elephants'
p2771
sS'Room_ioo'
p2772
S'o'
p2773
sS'MU'
p2774
S'N'
p2775
sS'MW'
p2776
S'N'
p2777
sS'objects'
p2778
(dp2779
sS'MS'
p2780
S'N'
p2781
sS'Room_Description'
p2782
S'You are in a painting at sunset, on either side of you there is an elephant with extreemly long legs and a house set upon its back.'
p2783
sS'monsters'
p2784
(dp2785
ssS'-3'
p2786
(dp2787
S'ME'
p2788
S'Y'
p2789
sS'Is_Trap'
p2790
S'n'
p2791
sS'traps'
p2792
(dp2793
sS'MD'
p2794
S'N'
p2795
sS'keys'
p2796
(dp2797
S'NK'
p2798
g1
sS'DK'
p2799
g1
sS'EK'
p2800
g1
sS'WK'
p2801
g1
sS'SK'
p2802
g1
sS'UK'
p2803
g1
ssS'items'
p2804
(dp2805
S'melted clock'
p2806
(dp2807
S'item_value'
p2808
S'0'
p2809
sS'item_class'
p2810
S'k'
p2811
sS'item_use_msg'
p2812
S"You know you can't tell time with a melted clock."
p2813
sS'item_description'
p2814
S'Even a melted clock is right twice a day.'
p2815
sssS'MN'
p2816
S'N'
p2817
sS'Room_title'
p2818
S'The Persistence of Memory'
p2819
sS'Room_ioo'
p2820
S'o'
p2821
sS'MU'
p2822
S'N'
p2823
sS'MW'
p2824
S'Y'
p2825
sS'objects'
p2826
(dp2827
sS'MS'
p2828
S'Y'
p2829
sS'Room_Description'
p2830
S'All around you, you see melting clocks in a desert landscape. One is hung over a tree.'
p2831
sS'monsters'
p2832
(dp2833
ssS'-2'
p2834
(dp2835
S'ME'
p2836
S'N'
p2837
sS'Is_Trap'
p2838
S'Y'
p2839
sS'traps'
p2840
(dp2841
g2838
S'Y'
p2842
sS"touch dali's knife"
p2843
(dp2844
S'item'
p2845
(dp2846
sS'Trap_Portal_MSG'
p2847
S'trap'
p2848
sS'Trap_Trigger_Phrase'
p2849
g2843
sS'trap_class'
p2850
S'I'
p2851
sS"dali's knife"
p2852
(dp2853
S'item_name'
p2854
g2852
sS'item_value'
p2855
S'9999999'
p2856
sS'item_class'
p2857
S'W'
p2858
sS'item_use_msg'
p2859
S"You use dali's knife. things melt/."
p2860
sS'item_description'
p2861
S"Its Dali's Knife, this thing is sharp."
p2862
ssssS'MD'
p2863
S'N'
p2864
sS'keys'
p2865
(dp2866
S'NK'
p2867
g1
sS'DK'
p2868
g1
sS'EK'
p2869
g1
sS'WK'
p2870
g1
sS'SK'
p2871
g1
sS'UK'
p2872
g1
ssS'items'
p2873
(dp2874
sS'MN'
p2875
S'N'
p2876
sS'Room_title'
p2877
S'Living still life'
p2878
sS'Room_ioo'
p2879
S'i'
p2880
sS'MU'
p2881
S'N'
p2882
sS'MW'
p2883
S'Y'
p2884
sS'objects'
p2885
(dp2886
S"dali's knife"
p2887
S"Its Dali's Knife. Seems pretty sharp"
p2888
ssS'MS'
p2889
S'N'
p2890
sS'Room_Description'
p2891
S'Youre in yet another painting, In this one there are bjects in motion, some dangerous like the knife that just flew past your head. Better watch out for those apples too.'
p2892
sS'monsters'
p2893
(dp2894
sssS'-2'
p2895
(dp2896
S'-5'
p2897
(dp2898
S'ME'
p2899
S'Y'
p2900
sS'Is_Trap'
p2901
S'y'
p2902
sS'traps'
p2903
(dp2904
g2901
g2902
sS'search woodstack'
p2905
(dp2906
S'Trap_Portal_Dest'
p2907
(lp2908
S'0'
p2909
ag2909
ag2909
ag2909
asS'Trap_Trigger_Phrase'
p2910
g2905
sS'SD'
p2911
S'd'
p2912
sS'trap_class'
p2913
S'SD'
p2914
sS'Trap_Portal_MSG'
p2915
S'As you search the woodstack and trap door opens to a painting below.'
p2916
sssS'MD'
p2917
S'N'
p2918
sS'keys'
p2919
(dp2920
S'NK'
p2921
g1
sS'DK'
p2922
g1
sS'EK'
p2923
g1
sS'WK'
p2924
g1
sS'SK'
p2925
g1
sS'UK'
p2926
g1
ssS'items'
p2927
(dp2928
sS'MN'
p2929
S'N'
p2930
sS'Room_title'
p2931
S'Lavacourt Under Snow'
p2932
sS'Room_ioo'
p2933
S'o'
p2934
sS'MU'
p2935
S'N'
p2936
sS'MW'
p2937
S'N'
p2938
sS'objects'
p2939
(dp2940
S'woodstack'
p2941
S'The woodstack looks like it could hold a secret.'
p2942
ssS'MS'
p2943
S'N'
p2944
sS'Room_Description'
p2945
S'Your still in a painting, this time its cold. To the west there is frozen water and a boat, to the east are some buildings. and among them is a woodstack'
p2946
sS'monsters'
p2947
(dp2948
ssS'-4'
p2949
(dp2950
S'ME'
p2951
S'N'
p2952
sS'Is_Trap'
p2953
S'y'
p2954
sS'traps'
p2955
(dp2956
g2953
g2954
sS'reach for lilly'
p2957
(dp2958
S'Trap_Portal_Dest'
p2959
(lp2960
S'0'
p2961
ag2961
ag2961
ag2961
asS'Trap_Portal_MSG'
p2962
S'As you reach for the lilly a peddle comes off and floats towards your hand. You try to grab it.'
p2963
sS'Trap_Trigger_Phrase'
p2964
g2957
sS'trap_class'
p2965
S'I'
p2966
sS'SD'
p2967
S'X'
p2968
sssS'MD'
p2969
S'N'
p2970
sS'keys'
p2971
(dp2972
S'NK'
p2973
g1
sS'DK'
p2974
g1
sS'EK'
p2975
g1
sS'WK'
p2976
g1
sS'SK'
p2977
g1
sS'UK'
p2978
g1
ssS'items'
p2979
(dp2980
sS'MN'
p2981
S'N'
p2982
sS'Room_title'
p2983
S'the water lilly pond'
p2984
sS'Room_ioo'
p2985
S'o'
p2986
sS'MU'
p2987
S'N'
p2988
sS'MW'
p2989
S'Y'
p2990
sS'objects'
p2991
(dp2992
S'giant lilly'
p2993
S'Its a giant lilly, if you could just reach.'
p2994
ssS'MS'
p2995
S'Y'
p2996
sS'Room_Description'
p2997
S'You enter another paiting, this one lush and green with a small bridge across a lilly filled pond. in the background the trees sway with the breeze.'
p2998
sS'monsters'
p2999
(dp3000
ssssS'-1'
p3001
(dp3002
S'-1'
p3003
(dp3004
S'-5'
p3005
(dp3006
S'ME'
p3007
S'N'
p3008
sS'Is_Trap'
p3009
S'n'
p3010
sS'traps'
p3011
(dp3012
sS'MD'
p3013
S'N'
p3014
sS'keys'
p3015
(dp3016
S'NK'
p3017
g1
sS'DK'
p3018
g1
sS'EK'
p3019
g1
sS'WK'
p3020
g1
sS'SK'
p3021
g1
sS'UK'
p3022
g1
ssS'items'
p3023
(dp3024
S'painting world suvineer'
p3025
(dp3026
S'item_value'
p3027
S'0'
p3028
sS'item_class'
p3029
S'K'
p3030
sS'item_use_msg'
p3031
S'You look like your going to poop your pants facing eschers hands.'
p3032
sS'item_description'
p3033
S'A photo of you fighting eschers hands.'
p3034
sssS'MN'
p3035
S'N'
p3036
sS'Room_title'
p3037
S'Exit from Painting World'
p3038
sS'Room_ioo'
p3039
S'I'
p3040
sS'MU'
p3041
S'Y'
p3042
sS'MW'
p3043
S'N'
p3044
sS'objects'
p3045
(dp3046
sS'MS'
p3047
S'Y'
p3048
sS'Room_Description'
p3049
S"Your in the exit from a theme park called 'Painting world. There is a staircase leading up to the Teleport room."
p3050
sS'monsters'
p3051
(dp3052
sssS'-2'
p3053
(dp3054
S'-5'
p3055
(dp3056
S'ME'
p3057
S'N'
p3058
sS'Is_Trap'
p3059
S'n'
p3060
sS'traps'
p3061
(dp3062
sS'MD'
p3063
S'N'
p3064
sS'keys'
p3065
(dp3066
S'NK'
p3067
g1
sS'DK'
p3068
g1
sS'EK'
p3069
g1
sS'WK'
p3070
g1
sS'SK'
p3071
g1
sS'UK'
p3072
g1
ssS'items'
p3073
(dp3074
sS'MN'
p3075
S'Y'
p3076
sS'Room_title'
p3077
S'The Scream'
p3078
sS'Room_ioo'
p3079
S'o'
p3080
sS'MU'
p3081
S'Y'
p3082
sS'MW'
p3083
S'N'
p3084
sS'objects'
p3085
(dp3086
sS'MS'
p3087
S'N'
p3088
sS'Room_Description'
p3089
S'Your face to face with a bald man, with his hands on his face, wailing at an aweful pitch. there is a bridge leading north.'
p3090
sS'monsters'
p3091
(dp3092
ssssS'monsters'
p3093
(dp3094
S'hammer-ai'
p3095
(dp3096
S'stats'
p3097
(lp3098
I2713
aI822
aI475
asS'name'
p3099
g3095
sS'description'
p3100
S'Your best bug Hammer-ai'
p3101
ssS'arachni-beth'
p3102
(dp3103
g3097
(lp3104
I1487
aI405
aI334
asg3099
g3102
sg3100
S'An Arcana-Beth.'
p3105
ssS'jerry slug'
p3106
(dp3107
g3097
(lp3108
I2612
aI442
aI235
asg3099
g3106
sg3100
S'A Jerry Slug.'
p3109
ssS'scary terry minion'
p3110
(dp3111
g3097
(lp3112
I249
aI15
aI93
asg3099
g3110
sg3100
S'A minion'
p3113
sssS'store'
p3114
(dp3115
S'items'
p3116
(dp3117
S'strong health potion'
p3118
(dp3119
S'item_name'
p3120
g3118
sS'item_value'
p3121
S'56'
p3122
sS'item_class'
p3123
S'P'
p3124
sS'item_description'
p3125
S'A big health Potion'
p3126
sS'item_cost'
p3127
I50
ssS'portal fluid'
p3128
(dp3129
g3120
g3128
sg3121
S'16'
p3130
sg3123
S'PF'
p3131
sg3125
g3128
sg3127
I50
ssS'big shmeckles'
p3132
(dp3133
g3120
g3132
sg3121
S'470'
p3134
sg3123
S'G'
p3135
sg3125
S'A big Shmeckle!'
p3136
sg3127
I50
ssS'shmeckles'
p3137
(dp3138
g3120
S'some shmeckles'
p3139
sg3121
S'40'
p3140
sg3123
g3135
sg3125
S'A small pile of shmeckles'
p3141
sg3127
I50
ssS'big portal fluid'
p3142
(dp3143
g3120
g3142
sg3121
S'42'
p3144
sg3123
g3131
sg3125
S'A big portal fluid.'
p3145
sg3127
I50
ssS'health potion'
p3146
(dp3147
g3120
g3146
sg3121
S'31'
p3148
sg3123
g3124
sg3125
S'A health Potion'
p3149
sg3127
I50
ssssS'items'
p3150
(dp3151
S'strong health potion'
p3152
(dp3153
S'item_name'
p3154
g3152
sS'item_value'
p3155
S'77'
p3156
sS'item_class'
p3157
S'P'
p3158
sS'item_description'
p3159
S'A big health Potion'
p3160
ssS'portal fluid'
p3161
(dp3162
g3154
g3161
sg3155
S'17'
p3163
sg3157
S'PF'
p3164
sg3159
g3161
ssS'big shmeckles'
p3165
(dp3166
g3154
g3165
sg3155
S'343'
p3167
sg3157
S'G'
p3168
sg3159
S'A big Shmeckle!'
p3169
ssS'shmeckles'
p3170
(dp3171
g3154
S'some shmeckles'
p3172
sg3155
S'78'
p3173
sg3157
g3168
sg3159
S'A small pile of shmeckles'
p3174
ssS'big portal fluid'
p3175
(dp3176
g3154
g3175
sg3155
S'44'
p3177
sg3157
g3164
sg3159
S'A big portal fluid.'
p3178
ssS'health potion'
p3179
(dp3180
g3154
g3179
sg3155
S'50'
p3181
sg3157
g3158
sg3159
S'A health Potion'
p3182
ssssS'crafts'
p3183
(dp3184
S'z dust'
p3185
(dp3186
S'item_name'
p3187
g3185
sS'item_value'
p3188
S'20'
p3189
sS'item_class'
p3190
S'P'
p3191
sS'req_items'
p3192
(lp3193
S'noob noob statue'
p3194
aS'bfg-9k'
p3195
asS'item_description'
p3196
S"A pile of Z dust. D'ya know what we could do with this Morty?"
p3197
ssS'butterbot'
p3198
(dp3199
S'item_value'
p3200
S'5000'
p3201
sS'item_use_msg'
p3202
S'You are ready for breakfast'
p3203
sS'item_name'
p3204
g3198
sS'item_class'
p3205
S'W'
p3206
sS'req_c_items'
p3207
(lp3208
I1
aI1
aI1
aI1
asS'req_items'
p3209
(lp3210
S'small tred'
p3211
aS'small cpu'
p3212
aS'small robot torso'
p3213
aS'small robot arms'
p3214
asS'item_description'
p3215
S'A small robot that passes butter. '
p3216
ssS'rick wallbanger'
p3217
(dp3218
g3188
S'10'
p3219
sS'item_use_msg'
p3220
S"Now We're getting shwifty."
p3221
sg3187
g3217
sg3190
S'p'
p3222
sg3192
(lp3223
S'noob noob statue'
p3224
aS'bfg-9k'
p3225
asg3196
S'A drink by ricks, for ricks.'
p3226
ssS'n'
p3227
(dp3228
S'item_value'
p3229
S'0'
p3230
sS'item_use_msg'
p3231
S'You craft a butter bot.'
p3232
sS'item_name'
p3233
g3227
sS'item_class'
p3234
S'W'
p3235
sS'req_c_items'
p3236
(lp3237
I1
aI1
aI1
aI1
asS'req_items'
p3238
(lp3239
S'small tred'
p3240
aS'small robot torso'
p3241
aS'small cpu'
p3242
aS'small robot arms'
p3243
asS'item_description'
p3244
S'A butter bot. what more do you need?'
p3245
sssS'222'
p3246
(dp3247
S'0'
p3248
(dp3249
S'1'
p3250
(dp3251
g3250
(dp3252
S'ME'
p3253
S'Y'
p3254
sS'Is_Trap'
p3255
S'Y'
p3256
sS'traps'
p3257
(dp3258
S'Is_Trap'
p3259
S'Y'
p3260
sS'push lever'
p3261
(dp3262
S'item'
p3263
(dp3264
sS'Trap_Portal_MSG'
p3265
S'You push the lever and a hidden door opens in the rocks.'
p3266
sS'Trap_Trigger_Phrase'
p3267
g3261
sS'trap_class'
p3268
S'sd'
p3269
sS'SD'
p3270
S'N'
p3271
ssS'push level'
p3272
(dp3273
S'item'
p3274
(dp3275
sS'Trap_Trigger_Phrase'
p3276
g3272
sS'trap_class'
p3277
S'T'
p3278
sS'Trap_Portal_MSG'
p3279
S'trap'
p3280
ssg3265
S'You push the level and A secret door opens iin the air to the north.'
p3281
ssS'MD'
p3282
S'N'
p3283
sS'keys'
p3284
(dp3285
S'NK'
p3286
g1
sS'DK'
p3287
g1
sS'EK'
p3288
g1
sS'WK'
p3289
g1
sS'SK'
p3290
g1
sS'UK'
p3291
g1
ssS'items'
p3292
(dp3293
sS'MN'
p3294
S'Y'
p3295
sS'Room_title'
p3296
S'Further Desert'
p3297
sg84
S'O'
p3298
sS'MU'
p3299
S'N'
p3300
sS'MW'
p3301
S'Y'
p3302
sS'objects'
p3303
(dp3304
S'pile of rocks'
p3305
S'A large pile of rocks, behind it you see a level sticking out of the ground.'
p3306
ssS'MS'
p3307
S'Y'
p3308
sS'Room_Description'
p3309
S'Your deep in the desert now. Your thirst is over powwering.'
p3310
sS'monsters'
p3311
(dp3312
ssg3248
(dp3313
g3253
S'Y'
p3314
sg3255
S'n'
p3315
sg3257
(dp3316
sg3282
S'N'
p3317
sg3284
(dp3318
g3286
g1
sg3287
g1
sg3288
g1
sg3289
g1
sg3290
g1
sg3291
g1
ssg3292
(dp3319
sg3294
S'Y'
p3320
sg3296
S'More Desert'
p3321
sg84
g3298
sg3299
S'N'
p3322
sg3301
S'Y'
p3323
sg3303
(dp3324
sg3307
S'Y'
p3325
sg3309
S'You continue to wander the desert. So thirsty.'
p3326
sg3311
(dp3327
ssS'2'
p3328
(dp3329
S'ME'
p3330
S'N'
p3331
sS'Is_Trap'
p3332
S'n'
p3333
sS'traps'
p3334
(dp3335
sS'MD'
p3336
S'N'
p3337
sS'keys'
p3338
(dp3339
S'NK'
p3340
g1
sS'DK'
p3341
g1
sS'EK'
p3342
g1
sS'WK'
p3343
g1
sS'SK'
p3344
g1
sS'UK'
p3345
g1
ssS'items'
p3346
(dp3347
sS'MN'
p3348
S'Y'
p3349
sS'Room_title'
p3350
S'Still more Desert'
p3351
sg84
g3298
sS'MU'
p3352
S'N'
p3353
sS'MW'
p3354
S'Y'
p3355
sS'objects'
p3356
(dp3357
sS'MS'
p3358
S'Y'
p3359
sS'Room_Description'
p3360
S"You must be lost. It's ok to check the dgps. Where were you going anyways, is that a llama? "
p3361
sS'monsters'
p3362
(dp3363
ssS'-1'
p3364
(dp3365
S'ME'
p3366
S'Y'
p3367
sS'Is_Trap'
p3368
S'n'
p3369
sS'traps'
p3370
(dp3371
sS'MD'
p3372
S'N'
p3373
sS'keys'
p3374
(dp3375
S'NK'
p3376
g1
sS'DK'
p3377
g1
sS'EK'
p3378
g1
sS'WK'
p3379
g1
sS'SK'
p3380
g1
sS'UK'
p3381
g1
ssS'items'
p3382
(dp3383
sS'MN'
p3384
S'Y'
p3385
sS'Room_title'
p3386
S'The Endless Desert'
p3387
sg84
g3298
sS'MU'
p3388
S'N'
p3389
sS'MW'
p3390
S'Y'
p3391
sS'objects'
p3392
(dp3393
sS'MS'
p3394
S'Y'
p3395
sS'Room_Description'
p3396
S'This desert seems endless. But your blocked in by rocks.'
p3397
sS'monsters'
p3398
(dp3399
ssS'-2'
p3400
(dp3401
S'ME'
p3402
S'Y'
p3403
sS'Is_Trap'
p3404
S'n'
p3405
sS'traps'
p3406
(dp3407
sS'MD'
p3408
S'N'
p3409
sS'keys'
p3410
(dp3411
S'NK'
p3412
g1
sS'DK'
p3413
g1
sS'EK'
p3414
g1
sS'WK'
p3415
g1
sS'SK'
p3416
g1
sS'UK'
p3417
g1
ssS'items'
p3418
(dp3419
sS'MN'
p3420
S'Y'
p3421
sS'Room_title'
p3422
S'Desert landscape'
p3423
sg84
g3298
sS'MU'
p3424
S'N'
p3425
sS'MW'
p3426
S'N'
p3427
sS'objects'
p3428
(dp3429
sS'MS'
p3430
S'Y'
p3431
sS'Room_Description'
p3432
S'You wander the desert, wishing you had water.'
p3433
sS'monsters'
p3434
(dp3435
sssg3248
(dp3436
g3250
(dp3437
g3253
S'Y'
p3438
sg3255
g3315
sg3257
(dp3439
sg3282
S'N'
p3440
sg3284
(dp3441
g3286
g1
sg3287
g1
sg3288
g1
sg3289
g1
sg3290
g1
sg3291
g1
ssg3292
(dp3442
sg3294
S'Y'
p3443
sg3296
S'Even more desert'
p3444
sg84
g3298
sg3299
S'N'
p3445
sg3301
S'Y'
p3446
sg3303
(dp3447
sg3307
S'Y'
p3448
sg3309
S'The desert seems endless. Must find water.'
p3449
sg3311
(dp3450
ssg3248
(dp3451
g3253
S'Y'
p3452
sg3255
g3315
sg3257
(dp3453
sg3282
S'N'
p3454
sg3284
(dp3455
g3286
g1
sg3287
g1
sg3288
g1
sg3289
g1
sg3290
g1
sg3291
g1
ssg3292
(dp3456
sg3294
S'Y'
p3457
sg3296
S'A Baren Desert'
p3458
sg84
g3298
sg3299
S'N'
p3459
sg3301
S'Y'
p3460
sg3303
(dp3461
sg3307
S'Y'
p3462
sg3309
S'You look out on a barren desert landscape. Your extreemly thirsty.'
p3463
sg3311
(dp3464
ssg3328
(dp3465
g3330
S'N'
p3466
sg3332
g3333
sg3334
(dp3467
sg3336
S'N'
p3468
sg3338
(dp3469
g3340
g1
sg3341
g1
sg3342
g1
sg3343
g1
sg3344
g1
sg3345
g1
ssg3346
(dp3470
sg3348
S'Y'
p3471
sg3350
S'Yet more Desert'
p3472
sg84
g3298
sg3352
S'N'
p3473
sg3354
S'Y'
p3474
sg3356
(dp3475
sg3358
S'Y'
p3476
sg3360
S"Maybe you're lost. People get lost in the desert. It doesn't turn out well. At least you have a portal gun."
p3477
sg3362
(dp3478
ssS'-1'
p3479
(dp3480
S'ME'
p3481
S'Y'
p3482
sS'Is_Trap'
p3483
S'n'
p3484
sS'traps'
p3485
(dp3486
sS'MD'
p3487
S'N'
p3488
sS'keys'
p3489
(dp3490
S'NK'
p3491
g1
sS'DK'
p3492
g1
sS'EK'
p3493
g1
sS'WK'
p3494
g1
sS'SK'
p3495
g1
sS'UK'
p3496
g1
ssS'items'
p3497
(dp3498
sS'MN'
p3499
S'Y'
p3500
sS'Room_title'
p3501
S'Even More desert'
p3502
sg84
g3298
sS'MU'
p3503
S'N'
p3504
sS'MW'
p3505
S'Y'
p3506
sS'objects'
p3507
(dp3508
sS'MS'
p3509
S'Y'
p3510
sS'Room_Description'
p3511
S'It seems you could wander here forever. The desert is endless.'
p3512
sS'monsters'
p3513
(dp3514
ssS'-2'
p3515
(dp3516
g3402
S'Y'
p3517
sg3404
g3405
sg3406
(dp3518
sg3408
S'N'
p3519
sg3410
(dp3520
g3412
g1
sg3413
g1
sg3414
g1
sg3415
g1
sg3416
g1
sg3417
g1
ssg3418
(dp3521
sg3420
S'Y'
p3522
sg3422
S'Even more desert'
p3523
sg84
g3298
sg3424
S'N'
p3524
sg3426
S'N'
p3525
sg3428
(dp3526
sg3430
S'Y'
p3527
sg3432
S'You could get lost in this place. It just seems to be a barren desert.'
p3528
sg3434
(dp3529
sssS'2'
p3530
(dp3531
g3250
(dp3532
g3253
S'N'
p3533
sg3255
S'Y'
p3534
sg3257
(dp3535
g3255
S'y'
p3536
sS'flip hidden switch'
p3537
(dp3538
S'Trap_Portal_Dest'
p3539
(lp3540
S'222'
p3541
aS'-1'
p3542
aS'0'
p3543
ag3543
asS'Trap_Trigger_Phrase'
p3544
g3537
sS'item'
p3545
(dp3546
sg3537
(dp3547
S'Trap_Portal_Dest'
p3548
(lp3549
S'222'
p3550
aS'-1'
p3551
ag3248
ag3248
asS'Trap_Trigger_Phrase'
p3552
g3537
sS'trap_class'
p3553
S'p'
p3554
sS'Trap_Portal_MSG'
p3555
S'You flip the hidden switch and are transported to bird persons home.'
p3556
ssS'SD'
p3557
S'X'
p3558
sS'trap_class'
p3559
S'P'
p3560
sS'Trap_Portal_MSG'
p3561
S'You Flip the switch and you are teleported to bird persons home.'
p3562
sssg3282
S'N'
p3563
sg3284
(dp3564
g3286
g1
sg3287
g1
sg3288
g1
sg3289
g1
sg3290
g1
sg3291
g1
ssg3292
(dp3565
sg3294
S'N'
p3566
sg3296
S'A Secret room'
p3567
sg84
g3298
sg3299
S'N'
p3568
sg3301
S'N'
p3569
sg3303
(dp3570
S'pile of rocks'
p3571
S'You look at the rocks, there seems to be switch hidden under the rocks.'
p3572
ssg3307
S'N'
p3573
sg3309
S'Theres a pile of rocks on the ground.'
p3574
sg3311
(dp3575
ssS'0'
p3576
(dp3577
S'ME'
p3578
S'N'
p3579
sS'Is_Trap'
p3580
S'n'
p3581
sS'traps'
p3582
(dp3583
sS'MD'
p3584
S'N'
p3585
sS'keys'
p3586
(dp3587
S'NK'
p3588
g1
sS'DK'
p3589
g1
sS'EK'
p3590
g1
sS'WK'
p3591
g1
sS'SK'
p3592
g1
sS'UK'
p3593
g1
ssS'items'
p3594
(dp3595
sS'MN'
p3596
S'N'
p3597
sS'Room_title'
p3598
S'More desert'
p3599
sg84
g3298
sS'MU'
p3600
S'N'
p3601
sS'MW'
p3602
S'Y'
p3603
sS'objects'
p3604
(dp3605
sS'MS'
p3606
S'Y'
p3607
sS'Room_Description'
p3608
S"Even more desert. Why didn't you pack water?"
p3609
sS'monsters'
p3610
(dp3611
ssS'2'
p3612
(dp3613
S'ME'
p3614
S'N'
p3615
sS'Is_Trap'
p3616
S'n'
p3617
sS'traps'
p3618
(dp3619
sS'MD'
p3620
S'N'
p3621
sS'keys'
p3622
(dp3623
S'NK'
p3624
g1
sS'DK'
p3625
g1
sS'EK'
p3626
g1
sS'WK'
p3627
g1
sS'SK'
p3628
g1
sS'UK'
p3629
g1
ssS'items'
p3630
(dp3631
sS'MN'
p3632
S'N'
p3633
sS'Room_title'
p3634
S'Lost in the desert'
p3635
sg84
g3298
sS'MU'
p3636
S'N'
p3637
sS'MW'
p3638
S'N'
p3639
sS'objects'
p3640
(dp3641
sS'MS'
p3642
S'Y'
p3643
sS'Room_Description'
p3644
S"You're lost. That's it, time to call Rick. "
p3645
sS'monsters'
p3646
(dp3647
ssS'-1'
p3648
(dp3649
g3578
S'Y'
p3650
sg3580
g3581
sg3582
(dp3651
sg3584
S'N'
p3652
sg3586
(dp3653
g3588
g1
sg3589
g1
sg3590
g1
sg3591
g1
sg3592
g1
sg3593
g1
ssg3594
(dp3654
sg3596
S'N'
p3655
sg3598
S'Even More Desert'
p3656
sg84
g3298
sg3600
S'N'
p3657
sg3602
S'Y'
p3658
sg3604
(dp3659
sg3606
S'Y'
p3660
sg3608
S'You are in an endless desert, surrounded by steep cliffs.'
p3661
sg3610
(dp3662
ssS'-2'
p3663
(dp3664
g3578
S'Y'
p3665
sg3580
g3581
sg3582
(dp3666
sg3584
S'N'
p3667
sg3586
(dp3668
g3588
g1
sg3589
g1
sg3590
g1
sg3591
g1
sg3592
g1
sg3593
g1
ssg3594
(dp3669
sg3596
S'N'
p3670
sg3598
S'Yet more desert'
p3671
sg84
g3298
sg3600
S'N'
p3672
sg3602
S'N'
p3673
sg3604
(dp3674
sg3606
S'Y'
p3675
sg3608
S"You'd think water would be a interdemionsal travelers mainstay, but somehow you forgo. There is desert all around."
p3676
sg3610
(dp3677
sssS'-1'
p3678
(dp3679
S'1'
p3680
(dp3681
S'ME'
p3682
S'Y'
p3683
sg3259
S'n'
p3684
sS'traps'
p3685
(dp3686
sS'MD'
p3687
S'N'
p3688
sS'keys'
p3689
(dp3690
S'NK'
p3691
g1
sS'DK'
p3692
g1
sS'EK'
p3693
g1
sS'WK'
p3694
g1
sS'SK'
p3695
g1
sS'UK'
p3696
g1
ssS'items'
p3697
(dp3698
sS'MN'
p3699
S'Y'
p3700
sS'Room_title'
p3701
S'Even More Desert'
p3702
sg84
g3298
sS'MU'
p3703
S'N'
p3704
sS'MW'
p3705
S'Y'
p3706
sS'objects'
p3707
(dp3708
sS'MS'
p3709
S'Y'
p3710
sS'Room_Description'
p3711
S'The landscape is barren. The sun is blazing hot.'
p3712
sS'monsters'
p3713
(dp3714
ssg3248
(dp3715
g3253
S'Y'
p3716
sg3255
g3315
sg3257
(dp3717
sg3282
S'N'
p3718
sg3284
(dp3719
g3286
g1
sg3287
g1
sg3288
g1
sg3289
g1
sg3290
g1
sg3291
g1
ssg3292
(dp3720
sg3294
S'Y'
p3721
sg3296
S'Even More Desert'
p3722
sg84
g3298
sg3299
S'N'
p3723
sg3301
S'Y'
p3724
sg3303
(dp3725
sg3307
S'Y'
p3726
sg3309
S'You are kinda getting tired of the desert theme, if only you had some type of teleportation device.'
p3727
sg3311
(dp3728
ssg3328
(dp3729
g3330
S'N'
p3730
sg3332
g3333
sg3334
(dp3731
sg3336
S'N'
p3732
sg3338
(dp3733
g3340
g1
sg3341
g1
sg3342
g1
sg3343
g1
sg3344
g1
sg3345
g1
ssg3346
(dp3734
sg3348
S'Y'
p3735
sg3350
S'Even more Desert'
p3736
sg84
g3298
sg3352
S'N'
p3737
sg3354
S'Y'
p3738
sg3356
(dp3739
sg3358
S'Y'
p3740
sg3360
S"You're wandering the desert. You feel like Moses. Got to find someplace to cool off."
p3741
sg3362
(dp3742
ssS'-1'
p3743
(dp3744
g3366
S'Y'
p3745
sg3368
g3369
sg3370
(dp3746
sg3372
S'N'
p3747
sg3374
(dp3748
g3376
g1
sg3377
g1
sg3378
g1
sg3379
g1
sg3380
g1
sg3381
g1
ssg3382
(dp3749
sg3384
S'Y'
p3750
sg3386
S'The Endless desert.'
p3751
sg84
g3298
sg3388
S'N'
p3752
sg3390
S'Y'
p3753
sg3392
(dp3754
sg3394
S'Y'
p3755
sg3396
S'The name is apt. But your blocked in by rocks.'
p3756
sg3398
(dp3757
ssS'-2'
p3758
(dp3759
g3402
S'Y'
p3760
sg3404
g3405
sg3406
(dp3761
sg3408
S'N'
p3762
sg3410
(dp3763
g3412
g1
sg3413
g1
sg3414
g1
sg3415
g1
sg3416
g1
sg3417
g1
ssg3418
(dp3764
sg3420
S'Y'
p3765
sg3422
S'Further desert'
p3766
sg84
g3298
sg3424
S'N'
p3767
sg3426
S'N'
p3768
sg3428
(dp3769
sg3430
S'Y'
p3770
sg3432
S"A barren desert landscape surrounds you. What you wouldn't give for some water."
p3771
sg3434
(dp3772
sssS'-2'
p3773
(dp3774
S'1'
p3775
(dp3776
g3330
S'Y'
p3777
sg3332
g3333
sg3334
(dp3778
sg3336
S'N'
p3779
sg3338
(dp3780
g3340
g1
sg3341
g1
sg3342
g1
sg3343
g1
sg3344
g1
sg3345
g1
ssg3346
(dp3781
sg3348
S'Y'
p3782
sg3350
S'Further Desert'
p3783
sg84
g3298
sg3352
S'N'
p3784
sg3354
S'Y'
p3785
sg3356
(dp3786
sg3358
S'N'
p3787
sg3360
S"You are deep in the desert. No water. Don't you have a portal gun or something?"
p3788
sg3362
(dp3789
ssS'0'
p3790
(dp3791
g3330
S'Y'
p3792
sg3332
g3333
sg3334
(dp3793
sg3336
S'N'
p3794
sg3338
(dp3795
g3340
g1
sg3341
g1
sg3342
g1
sg3343
g1
sg3344
g1
sg3345
g1
ssg3346
(dp3796
sg3348
S'Y'
p3797
sg3350
S'Still more Desert'
p3798
sg84
g3298
sg3352
S'N'
p3799
sg3354
S'Y'
p3800
sg3356
(dp3801
sg3358
S'N'
p3802
sg3360
S"You're still in the Desert. Nothing around. No Water. What were you thinking?"
p3803
sg3362
(dp3804
ssg3328
(dp3805
g3330
S'N'
p3806
sg3332
g3333
sg3334
(dp3807
sg3336
S'N'
p3808
sg3338
(dp3809
g3340
g1
sg3341
g1
sg3342
g1
sg3343
g1
sg3344
g1
sg3345
g1
ssg3346
(dp3810
sg3348
S'Y'
p3811
sg3350
S'Deep Desert'
p3812
sg84
g3298
sg3352
S'N'
p3813
sg3354
S'Y'
p3814
sg3356
(dp3815
sg3358
S'N'
p3816
sg3360
S"Deep in the Desert. You can't keep up like this. It's so hot. All this, just to die on a lifeless desert planet."
p3817
sg3362
(dp3818
ssS'-1'
p3819
(dp3820
g3330
S'Y'
p3821
sg3332
g3333
sg3334
(dp3822
sg3336
S'N'
p3823
sg3338
(dp3824
g3340
g1
sg3341
g1
sg3342
g1
sg3343
g1
sg3344
g1
sg3345
g1
ssg3346
(dp3825
sg3348
S'Y'
p3826
sg3350
S'Even more desert'
p3827
sg84
g3298
sg3352
S'N'
p3828
sg3354
S'Y'
p3829
sg3356
(dp3830
sg3358
S'N'
p3831
sg3360
S"Your still in the desert. You'd think someone would hie a base out here or something."
p3832
sg3362
(dp3833
ssS'-2'
p3834
(dp3835
g3402
S'Y'
p3836
sg3404
g3405
sg3406
(dp3837
sg3408
S'N'
p3838
sg3410
(dp3839
g3412
g1
sg3413
g1
sg3414
g1
sg3415
g1
sg3416
g1
sg3417
g1
ssg3418
(dp3840
sg3420
S'Y'
p3841
sg3422
S'Deserted Desert'
p3842
sg84
g3298
sg3424
S'N'
p3843
sg3426
S'N'
p3844
sg3428
(dp3845
sg3430
S'N'
p3846
sg3432
S"You're in a deserted desert. Its completely barren. If only you packed water."
p3847
sg3434
(dp3848
ssssS'-1'
p3849
(dp3850
g3248
(dp3851
g3248
(dp3852
g3253
S'N'
p3853
sg3255
S'Y'
p3854
sg3294
S'N'
p3855
sg3257
(dp3856
S'Is_Trap'
p3857
S'Y'
p3858
sS'join mission'
p3859
(dp3860
S'item'
p3861
(dp3862
sS'Trap_Trigger_Phrase'
p3863
g3859
sS'trap_class'
p3864
S'T'
p3865
sS'Trap_Portal_MSG'
p3866
S'trap'
p3867
ssS'help birdperson'
p3868
(dp3869
S'item'
p3870
(dp3871
sS'Trap_Portal_MSG'
p3872
S'You Shoot a portal into a Federation Starship. On a Quest to help Birdperson with a critical mission.'
p3873
sS'Trap_Trigger_Phrase'
p3874
g3868
sS'trap_class'
p3875
S'P'
p3876
sS'Trap_Portal_Dest'
p3877
(lp3878
S'444'
p3879
aS'0'
p3880
ag3880
ag3880
assS'Help birdperson'
p3881
(dp3882
g3870
(dp3883
sg3874
g3881
sg3875
S'T'
p3884
sg3872
S'trap'
p3885
ssg3872
S'You Join birdperson on his mission. You shoot a portal ointo a Federation Starship. On a quest, Topple the federation.'
p3886
ssg3282
S'N'
p3887
sg3284
(dp3888
g3286
g1
sg3287
g1
sg3288
g1
sg3289
g1
sg3290
g1
sg3291
g1
ssg3292
(dp3889
sS'companions'
p3890
(dp3891
S'birdperson'
p3892
(dp3893
S'armor'
p3894
(dp3895
sS'weapon'
p3896
(dp3897
sS'stats'
p3898
(lp3899
S'1000'
p3900
aS'100'
p3901
aS'100'
p3902
aS'1000'
p3903
asS'name'
p3904
S'birdperson'
p3905
sS'description'
p3906
S'Birdperson, a long time companion of Rick, and a capable warrior.'
p3907
sssg3296
S'Bird persons Home'
p3908
sg84
g3298
sg3299
S'N'
p3909
sg3301
S'N'
p3910
sg3303
(dp3911
S'birdpersons desk'
p3912
S'Its birdpersons desk. There are papers on it.'
p3913
ssg3307
S'N'
p3914
sg3309
S'You are in Birdpersons home. There is a desk with papers scattered on it. Birdperson asks for you join his mission.'
p3915
sg3311
(dp3916
ssssS'monsters'
p3917
(dp3918
S'hammer-ai'
p3919
(dp3920
S'stats'
p3921
(lp3922
I2282
aI586
aI687
asS'name'
p3923
g3919
sS'description'
p3924
S'Your best bug Hammer-ai'
p3925
ssS'arachni-beth'
p3926
(dp3927
g3921
(lp3928
I2152
aI208
aI971
asg3923
g3926
sg3924
S'An Arcana-Beth.'
p3929
ssS'jerry slug'
p3930
(dp3931
g3921
(lp3932
I2089
aI360
aI249
asg3923
g3930
sg3924
S'A Jerry Slug.'
p3933
ssS'scary terry minion'
p3934
(dp3935
g3921
(lp3936
I264
aI98
aI99
asg3923
g3934
sg3924
S'A minion'
p3937
ssS'federation bug'
p3938
(dp3939
S'stats'
p3940
(lp3941
S'1000'
p3942
aS'100'
p3943
aS'100'
p3944
asS'drop_unq'
p3945
S'Y'
p3946
sS'unq_item'
p3947
(dp3948
S'lvl9 passcode'
p3949
(dp3950
S'item_name'
p3951
g3949
sS'item_value'
p3952
S'0'
p3953
sS'item_class'
p3954
S'K'
p3955
sS'item_use_msg'
p3956
S'You read the paper.'
p3957
sS'item_description'
p3958
S'A slip of paper with the lvl9 passcode on it.'
p3959
ssg84
g3298
ssS'name'
p3960
g3938
sS'description'
p3961
S'An Agent of the Federation. Its mandibals are twitching.'
p3962
sssS'store'
p3963
(dp3964
S'items'
p3965
(dp3966
S'strong health potion'
p3967
(dp3968
S'item_value'
p3969
S'73'
p3970
sS'item_name'
p3971
g3967
sg84
g3298
sS'item_class'
p3972
S'P'
p3973
sS'item_cost'
p3974
I50
sS'item_description'
p3975
S'A big health Potion'
p3976
ssS'eye holes'
p3977
(dp3978
g3969
S'200'
p3979
sS'item_use_msg'
p3980
S'you eat eye holes.'
p3981
sg3971
g3977
sg84
g3298
sg3972
S'p'
p3982
sg3975
S'eye holes'
p3983
ssS'portal fluid'
p3984
(dp3985
g3969
S'11'
p3986
sg3971
g3984
sg84
g3298
sg3972
S'PF'
p3987
sg3974
I50
sg3975
g3984
ssS'big shmeckles'
p3988
(dp3989
g3969
S'296'
p3990
sg3971
g3988
sg84
g3298
sg3972
S'G'
p3991
sg3974
I50
sg3975
S'A big Shmeckle!'
p3992
ssS'shmeckles'
p3993
(dp3994
g3969
S'66'
p3995
sg3971
S'some shmeckles'
p3996
sg84
g3298
sg3972
g3991
sg3974
I50
sg3975
S'A small pile of shmeckles'
p3997
ssS'big portal fluid'
p3998
(dp3999
g3969
S'39'
p4000
sg3971
g3998
sg84
g3298
sg3972
g3987
sg3974
I50
sg3975
S'A big portal fluid.'
p4001
ssS'health potion'
p4002
(dp4003
g3969
S'27'
p4004
sg3971
g4002
sg84
g3298
sg3972
g3973
sg3974
I50
sg3975
S'A health Potion'
p4005
ssssS'items'
p4006
(dp4007
S'strong health potion'
p4008
(dp4009
S'item_name'
p4010
g4008
sS'item_value'
p4011
S'55'
p4012
sS'item_class'
p4013
S'P'
p4014
sS'item_description'
p4015
S'A big health Potion'
p4016
ssS'portal fluid'
p4017
(dp4018
g4010
g4017
sg4011
S'10'
p4019
sg4013
S'PF'
p4020
sg4015
g4017
ssS'big shmeckles'
p4021
(dp4022
g4010
g4021
sg4011
S'209'
p4023
sg4013
S'G'
p4024
sg4015
S'A big Shmeckle!'
p4025
ssS'shmeckles'
p4026
(dp4027
g4010
S'some shmeckles'
p4028
sg4011
S'100'
p4029
sg4013
g4024
sg4015
S'A small pile of shmeckles'
p4030
ssS'big portal fluid'
p4031
(dp4032
g4010
g4031
sg4011
S'47'
p4033
sg4013
g4020
sg4015
S'A big portal fluid.'
p4034
ssS'health potion'
p4035
(dp4036
g4010
g4035
sg4011
S'32'
p4037
sg4013
g4014
sg4015
S'A health Potion'
p4038
ssss.