(dp1
S'char_data'
p2
(dp3
S'char_comps'
p4
(dp5
S'noob noob'
p6
(dp7
S'armor'
p8
(dp9
S'Equiped'
p10
(dp11
S'item_name'
p12
S'T-Shirt'
p13
sS'item_value'
p14
I0
sS'item_class'
p15
S'A'
sS'count'
p16
S'1'
sS'item_description'
p17
S'The shirt on your Back.'
p18
sssS'weapon'
p19
(dp20
g10
(dp21
g16
I1
sS'item_value'
p22
S'99999'
p23
sS'item_use_msg'
p24
S'You slice through enemies with ease.'
p25
sS'item_name'
p26
S'laser katana'
p27
sS'item_class'
p28
S'MW'
p29
sS'item_description'
p30
S'Ricks Laser Katana'
p31
sssS'stats'
p32
(lp33
I999
aI200997
aI999
aI999
asS'name'
p34
g6
sS'description'
p35
S'Its your friend noob noob.'
p36
ssS'jerry'
p37
(dp38
S'armor'
p39
(dp40
sS'weapon'
p41
(dp42
sS'stats'
p43
(lp44
S'100'
p45
aS'10'
p46
aS'10'
p47
aS'100'
p48
asS'name'
p49
S'Jerry'
p50
sS'description'
p51
S'Its Jerry.'
p52
sssS'char_weapon'
p53
(dp54
g10
(dp55
g12
S'hands'
p56
sg14
I0
sg15
S'MW'
p57
sg17
S'Your own two hands.'
p58
sssS'char_stats'
p59
(lp60
I9999999999
aI20
aI20
aI80
aI9999999999
aI50
asS'char_inv'
p61
(dp62
S'Noob Noobs Mop'
p63
(dp64
g12
g63
sg14
I0
sg15
g57
sg16
S'1'
sg17
S"It's NoobNoobs mop."
p65
ssS'dgps'
p66
(dp67
g16
I1
sg12
g66
sg15
S'DGPS'
p68
sg17
S'Your Demensional GPS.'
p69
sg14
I0
ssS'noob noob statue'
p70
(dp71
g16
I1
sS'item_value'
p72
S'0'
sS'item_use_msg'
p73
S'you place noob noob on the pedastool.'
p74
sg12
g70
sS'item_class'
p75
S'k'
sS'item_description'
p76
S'Noob Noob with mop'
p77
ssS'portal gun'
p78
(dp79
g16
I1
sS'item_value'
p80
S'0'
sS'item_use_msg'
p81
S'I said dont touch morty.'
p82
sg12
g78
sS'item_class'
p83
S'PG'
p84
sS'item_description'
p85
S'Ricks Portal Gun, Dont Touch.'
p86
ssg13
(dp87
g12
g13
sg14
I0
sg15
S'A'
sg16
S'1'
sg17
g18
ssg56
(dp88
g16
S'1'
sg12
S'Hands'
p89
sg15
g57
sg17
g58
sg14
I0
ssS'health potion'
p90
(dp91
S'item_name'
p92
g90
sS'item_value'
p93
S'40'
p94
sS'item_class'
p95
S'P'
sg16
I1
sS'item_description'
p96
S'A health Potion'
p97
ssS'jerrys tablet'
p98
(dp99
g16
I1
sS'item_value'
p100
S'5000'
p101
sS'item_use_msg'
p102
S'You cant use this, give it to Jerry'
p103
sS'item_name'
p104
g98
sS'item_class'
p105
S'MW'
p106
sS'item_description'
p107
S'Jerrys Tablet. Its the only weapon he can use.'
p108
ssS'bfg-9k'
p109
(dp110
g16
I1
sS'item_value'
p111
S'9999'
p112
sS'item_use_msg'
p113
S'boom'
p114
sg12
g109
sS'item_class'
p115
S'W'
sS'item_description'
p116
S'boom your dead'
p117
sssS'char_pos'
p118
(lp119
S'333'
p120
aS'0'
aS'-1'
p121
aS'-1'
p122
asS'char_armor'
p123
(dp124
g10
(dp125
g12
g13
sg14
I0
sg17
g18
ssssS'Level_data'
p126
(dp127
S''
(dp128
S''
(dp129
S''
(dp130
S''
(dp131
S'ME'
p132
S''
sS'Is_Trap'
p133
S''
sS'Trap_Trigger_Phrase'
p134
NsS'traps'
p135
(dp136
S'Is_Trap'
p137
S'Y'
sN(dp138
S'Trap_Portal_Dest'
p139
(lp140
S'-999'
p141
ag141
ag141
ag141
asS'Trap_Trigger_Phrase'
p142
NsS'trap_class'
p143
S'P'
sS'Trap_Portal_MSG'
p144
NsssS'MD'
p145
S''
sS'keys'
p146
(dp147
sS'items'
p148
(dp149
sS'MN'
p150
S''
sS'Room_title'
p151
S''
sS'MU'
p152
S''
sS'Trap_Portal_Dest'
p153
g140
sS'MW'
p154
S''
sS'objects'
p155
(dp156
sS'MS'
p157
S''
sS'Room_Description'
p158
S''
sS'monsters'
p159
(dp160
sS'Trap_Portal_MSG'
p161
NsssssS'333'
p162
(dp163
S'0'
(dp164
S'1'
(dp165
S'0'
(dp166
S'ME'
p167
S'N'
sS'Is_Trap'
p168
S'Y'
sS'traps'
p169
(dp170
S'Is_Trap'
p171
S'Y'
sS'push button'
p172
(dp173
S'item'
p174
(dp175
sS'Trap_Portal_MSG'
p176
S'You push the button. And are teleported into a room, with your mouth around a doorknob. As you straighten up you are teleported again to Barren Desert'
p177
sS'Trap_Trigger_Phrase'
p178
g172
sS'trap_class'
p179
S'P'
sS'Trap_Portal_Dest'
p180
(lp181
S'222'
p182
aS'0'
aS'0'
aS'0'
assg176
S'You are transported into a room with a door knob in your mouth. After removing the knob, as you stand your a transported again to a desert.'
p183
ssS'MD'
p184
S'N'
sS'keys'
p185
(dp186
S'NK'
p187
S''
sS'DK'
p188
S''
sS'EK'
p189
S''
sS'WK'
p190
S''
sS'SK'
p191
S''
sS'UK'
p192
S''
ssS'items'
p193
(dp194
sS'MN'
p195
S'N'
sS'Room_title'
p196
S'Room of Abandonded Jerrys'
p197
sS'MU'
p198
S'N'
sS'MW'
p199
S'N'
sS'objects'
p200
(dp201
S'large button'
p202
S'A large button is in the middle of the room. The Jerrys are afraid to push it.'
p203
ssS'MS'
p204
S'Y'
sS'Room_Description'
p205
S'A room of Jerrys whos Ricks never came back.'
p206
sS'monsters'
p207
(dp208
sssS'0'
(dp209
S'1'
(dp210
S'ME'
p211
S'N'
sS'Is_Trap'
p212
S'Y'
sS'traps'
p213
(dp214
g212
S'y'
sS'smack vending machine'
p215
(dp216
S'Eye Holes'
p217
(dp218
S'item_name'
p219
g217
sS'item_value'
p220
S'500'
p221
sS'item_class'
p222
S'P'
sS'item_use_msg'
p223
S' You quickly eat the EyeHoles. They melt in your mouth.'
p224
sS'item_description'
p225
S'Better eat these before the EyeHole man catches toyou with them.'
p226
ssS'Trap_Portal_Dest'
p227
(lp228
S'0'
aS'-1'
p229
aS'-1'
p230
aS'1'
asS'eye-holes'
p231
(dp232
g219
g231
sg220
S'200'
p233
sg222
S'p'
sg223
S'You quickly eat the EyeHoles. They melt in your mouth.'
p234
sg225
S'Better eat these before the EyeHole man catches you with them.'
p235
ssS'Trap_Trigger_Phrase'
p236
g215
sS'item'
p237
(dp238
sg215
(dp239
S'Trap_Portal_Dest'
p240
(lp241
S'0'
aS'0'
aS'0'
aS'0'
asS'Trap_Trigger_Phrase'
p242
g215
sS'trap_class'
p243
S'i'
sS'Trap_Portal_MSG'
p244
S'You smack the vending machine and some Eye-Holes drop into the tray.'
p245
ssS'SD'
p246
S'X'
sS'trap_class'
p247
S'I'
sS'Trap_Portal_MSG'
p248
S'You smack the vending machine, and a pack of eye holes fall out into the tray.'
p249
sssS'MD'
p250
S'N'
sS'keys'
p251
(dp252
S'NK'
p253
S''
sS'DK'
p254
S''
sS'EK'
p255
S''
sS'WK'
p256
S''
sS'SK'
p257
S''
sS'UK'
p258
S''
ssS'items'
p259
(dp260
sS'MN'
p261
S'N'
sS'Room_title'
p262
S'Jerrys Dining Area.'
p263
sS'MU'
p264
S'N'
sS'MW'
p265
S'Y'
sS'objects'
p266
(dp267
S'vending machine'
p268
S'A vending machine with Jerry Snacks.'
p269
ssS'MS'
p270
S'Y'
sS'Room_Description'
p271
S'Around you there are Jerrys from all over enjoying their favorite meals.'
p272
sS'monsters'
p273
(dp274
ssS'0'
(dp275
S'ME'
p276
S'Y'
sS'Is_Trap'
p277
S'y'
sS'companions'
p278
(dp279
sS'traps'
p280
(dp281
g277
S'y'
sS'talk to front desk'
p282
(dp283
g282
(dp284
S'Trap_Portal_Dest'
p285
(lp286
S'0'
aS'-1'
p287
aS'-1'
p288
aS'1'
asS'Trap_Trigger_Phrase'
p289
g282
sS'trap_class'
p290
S'P'
sS'Trap_Portal_MSG'
p291
S'You talk to the front desk and they teleport you back home.'
p292
ssS'SD'
p293
S'X'
sssS'MD'
p294
S'N'
sS'keys'
p295
(dp296
S'NK'
p297
S'ACCESS BADGE'
p298
sS'DK'
p299
S''
sS'EK'
p300
S'N'
sS'WK'
p301
S'N'
sS'SK'
p302
S'N'
sS'UK'
p303
S'N'
ssS'items'
p304
(dp305
sS'MN'
p306
S'L'
sS'Room_title'
p307
S'Jerry-Care. Front Desk.'
p308
sS'MU'
p309
S'N'
sS'MW'
p310
S'Y'
sS'objects'
p311
(dp312
S'front desk'
p313
S'There is a alien creature at the front desk.'
p314
ssS'MS'
p315
S'Y'
sS'Room_Description'
p316
S''
sS'monsters'
p317
(dp318
ssS'-1'
p319
(dp320
g276
S'Y'
sg277
S'n'
sg280
(dp321
sg294
S'N'
sg295
(dp322
g297
S''
sg299
S''
sg300
S''
sg301
S''
sg302
S''
sg303
S''
ssg304
(dp323
sg306
S'N'
sg307
S'Jerrys game room.'
p324
sg309
S'N'
sg310
S'N'
sg311
(dp325
sg315
S'Y'
sg316
S'This is the Jerry game room. There are dozen of Jerrys all playing various board games.'
p326
sg317
(dp327
sssS'-1'
p328
(dp329
S'1'
(dp330
S'ME'
p331
S'N'
sS'Is_Trap'
p332
S'n'
sS'traps'
p333
(dp334
sS'MD'
p335
S'N'
sS'keys'
p336
(dp337
S'NK'
p338
S''
sS'DK'
p339
S''
sS'EK'
p340
S''
sS'WK'
p341
S''
sS'SK'
p342
S''
sS'UK'
p343
S''
ssS'items'
p344
(dp345
sS'MN'
p346
S'Y'
sS'Room_title'
p347
S'Beth playroom.'
p348
sS'MU'
p349
S'N'
sS'MW'
p350
S'Y'
sS'objects'
p351
(dp352
sS'MS'
p353
S'N'
sS'Room_Description'
p354
S'Its a room filled with Beth dolls. I dont want to kno what jerrys do in here.'
p355
sS'monsters'
p356
(dp357
ssS'0'
(dp358
g276
S'Y'
sg277
S'n'
sg280
(dp359
sg294
S'N'
sg295
(dp360
g297
S''
sg299
S''
sg300
S''
sg301
S''
sg302
S''
sg303
S''
ssg304
(dp361
sg306
S'Y'
sg307
S'Jerrys Ball Pit.'
p362
sg309
S'N'
sg310
S'Y'
sg311
(dp363
sg315
S'N'
sg316
S'Its a giant ball pit filled with Jerrys. They are playing with a giant Beth mascot. '
p364
sg317
(dp365
ssS'-1'
p366
(dp367
g276
S'Y'
sg277
S'Y'
sg280
(dp368
S'Is_Trap'
p369
S'Y'
sS'Trap_Portal_MSG'
p370
S'You search the tv stand and find Jerrys Tablet.'
p371
sS'search tv stand'
p372
(dp373
g16
S'3'
sS'Trap_Trigger_Phrase'
p374
g372
sS'Trap_Portal_Dest'
p375
(lp376
S'0'
aS'0'
aS'0'
aS'0'
asS'jerrys tablet'
p377
g99
sS'trap_class'
p378
S'I'
sS'Trap_Portal_MSG'
p379
S'trap'
p380
sssg294
S'N'
sg295
(dp381
g297
S''
sg299
S''
sg300
S''
sg301
S''
sg302
S''
sg303
S''
ssg304
(dp382
sg306
S'Y'
sg307
S'Jerrys Tv Center'
p383
sg309
S'N'
sg310
S'N'
sg311
(dp384
S'tv'
p385
S'This TV is on the factory tint setting. Its always too high.'
p386
sS''
S''
ssg315
S'N'
sg316
S'A room with TVs for jerry to adjust the tint settings on and watch Bladerunner directors cut.'
p387
sg317
(dp388
ssssS'monsters'
p389
(dp390
S'hammer-ai'
p391
(dp392
S'stats'
p393
(lp394
I1965
aI586
aI551
asS'name'
p395
g391
sS'description'
p396
S'Your best bug Hammer-ai'
p397
ssS'arachni-beth'
p398
(dp399
g393
(lp400
I-30034
aI134
aI912
asg395
g398
sg396
S'An Arcana-Beth.'
p401
ssS'jerry slug'
p402
(dp403
g393
(lp404
I1381
aI260
aI216
asg395
g402
sg396
S'A Jerry Slug.'
p405
ssS'evil beth doll'
p406
(dp407
S'stats'
p408
(lp409
S'1000'
p410
aS'100'
p411
aS'100'
p412
asS'name'
p413
g406
sS'description'
p414
S'A Beth Doll thats been possesed by an evil spirit.'
p415
ssS'scary terry minion'
p416
(dp417
g393
(lp418
I125
aI33
aI36
asg395
g416
sg396
S'A minion'
p419
sssS'items'
p420
(dp421
S'strong health potion'
p422
(dp423
S'item_name'
p424
g422
sS'item_value'
p425
S'55'
p426
sS'item_class'
p427
S'P'
sS'item_description'
p428
S'A big health Potion'
p429
ssS'eye holes'
p430
(dp431
S'item_name'
p432
g430
sS'item_value'
p433
S'200'
p434
sS'item_class'
p435
S'P'
sS'item_use_msg'
p436
S'You eat the Eye-Holes quickly. Watching for the Eye-Hole Man.'
p437
sS'item_description'
p438
S'A package of Eye Holes.'
p439
ssS'portal fluid'
p440
(dp441
g424
g440
sg425
S'14'
p442
sg427
S'PF'
p443
sg428
g440
ssS'big shmeckles'
p444
(dp445
g424
g444
sg425
S'342'
p446
sg427
S'G'
sg428
S'A big Shmeckle!'
p447
ssS'shmeckles'
p448
(dp449
g424
S'some shmeckles'
p450
sg425
S'59'
p451
sg427
S'G'
sg428
S'A small pile of shmeckles'
p452
ssS'big portal fluid'
p453
(dp454
g424
g453
sg425
S'50'
p455
sg427
g443
sg428
S'A big portal fluid.'
p456
ssS'health potion'
p457
(dp458
g424
g457
sg425
S'29'
p459
sg427
S'P'
sg428
S'A health Potion'
p460
ssssS'444'
p461
(dp462
S'items'
p463
(dp464
S'strong health potion'
p465
(dp466
S'item_name'
p467
g465
sS'item_value'
p468
S'51'
p469
sS'item_class'
p470
S'P'
sS'item_description'
p471
S'A big health Potion'
p472
ssS'portal fluid'
p473
(dp474
g467
g473
sg468
S'27'
p475
sg470
S'PF'
p476
sg471
g473
ssS'big shmeckles'
p477
(dp478
g467
g477
sg468
S'455'
p479
sg470
S'G'
sg471
S'A big Shmeckle!'
p480
ssS'shmeckles'
p481
(dp482
g467
S'some shmeckles'
p483
sg468
S'99'
p484
sg470
S'G'
sg471
S'A small pile of shmeckles'
p485
ssS'big portal fluid'
p486
(dp487
g467
g486
sg468
S'30'
p488
sg470
g476
sg471
S'A big portal fluid.'
p489
ssS'health potion'
p490
(dp491
g467
g490
sg468
S'38'
p492
sg470
S'P'
sg471
S'A health Potion'
p493
sssS'1'
(dp494
S'1'
(dp495
S'-1'
p496
(dp497
S'ME'
p498
S'N'
sS'Is_Trap'
p499
S'n'
sS'traps'
p500
(dp501
sS'MD'
p502
S'N'
sS'keys'
p503
(dp504
S'NK'
p505
S''
sS'DK'
p506
S''
sS'EK'
p507
S''
sS'WK'
p508
S''
sS'SK'
p509
S''
sS'UK'
p510
S'LVL9 PASSCODE'
p511
ssS'items'
p512
(dp513
sS'MN'
p514
S'N'
sS'Room_title'
p515
S'Level 2 Access Hatch'
p516
sS'MU'
p517
S'L'
sS'MW'
p518
S'N'
sS'objects'
p519
(dp520
sS'MS'
p521
S'N'
sS'Room_Description'
p522
S'The ladder continues up and down. The access hatch for level 2 is sealed shut.'
p523
sS'monsters'
p524
(dp525
ssssS'0'
(dp526
S'1'
(dp527
S'1'
(dp528
S'ME'
p529
S'N'
sS'Is_Trap'
p530
S'n'
sS'traps'
p531
(dp532
sS'MD'
p533
S'N'
sS'keys'
p534
(dp535
S'NK'
p536
S''
sS'DK'
p537
S''
sS'EK'
p538
S''
sS'WK'
p539
S''
sS'SK'
p540
S''
sS'UK'
p541
S''
ssS'items'
p542
(dp543
sS'MN'
p544
S'Y'
sS'Room_title'
p545
S'Long Hallway'
p546
sS'MU'
p547
S'N'
sS'MW'
p548
S'N'
sS'objects'
p549
(dp550
sS'MS'
p551
S'Y'
sS'Room_Description'
p552
S'Your still in in the long hallway.'
p553
sS'monsters'
p554
(dp555
ssS'-1'
p556
(dp557
S'ME'
p558
S'N'
sS'Is_Trap'
p559
S'n'
sS'traps'
p560
(dp561
sS'MD'
p562
S'N'
sS'keys'
p563
(dp564
S'NK'
p565
S''
sS'DK'
p566
S''
sS'EK'
p567
S''
sS'WK'
p568
S''
sS'SK'
p569
S''
sS'UK'
p570
S'LVL9 PASSCODE'
p571
ssS'items'
p572
(dp573
sS'MN'
p574
S'N'
sS'Room_title'
p575
S'End of HallWay'
p576
sS'MU'
p577
S'L'
sS'MW'
p578
S'N'
sS'objects'
p579
(dp580
sS'MS'
p581
S'Y'
sS'Room_Description'
p582
S'Your at the end of the hallway. There is a lader leading up to a hatch.'
p583
sS'monsters'
p584
(dp585
sssS'0'
(dp586
S'1'
(dp587
S'ME'
p588
S'L'
sS'Is_Trap'
p589
S'n'
sS'traps'
p590
(dp591
sS'MD'
p592
S'N'
sS'keys'
p593
(dp594
S'NK'
p595
S''
sS'DK'
p596
S''
sS'EK'
p597
S'LVL9 PASSCODE'
p598
sS'WK'
p599
S''
sS'SK'
p600
S''
sS'UK'
p601
S''
ssS'items'
p602
(dp603
sS'MN'
p604
S'Y'
sS'Room_title'
p605
S'A long Hallway'
p606
sS'MU'
p607
S'N'
sS'MW'
p608
S'N'
sS'objects'
p609
(dp610
sS'MS'
p611
S'Y'
sS'Room_Description'
p612
S'The Hallway continues to the north and there is a high security door to the west.'
p613
sS'monsters'
p614
(dp615
ssS'0'
(dp616
g558
S'N'
sg559
S''
sg560
(dp617
sg562
S'N'
sg563
(dp618
g565
S''
sg566
S''
sg567
S''
sg568
S''
sg569
S''
sg570
S''
ssg572
(dp619
sg574
S'N'
sg575
S'Storage bay.'
p620
sg577
S'N'
sg578
S'Y'
sg579
(dp621
sg581
S'N'
sg582
S'Your in a storage bay on a Federation StarShip.'
p622
sg584
(dp623
ssS'2'
(dp624
S'ME'
p625
S'N'
sS'Is_Trap'
p626
S'n'
sS'traps'
p627
(dp628
sS'MD'
p629
S'N'
sS'keys'
p630
(dp631
S'NK'
p632
S''
sS'DK'
p633
S''
sS'EK'
p634
S''
sS'WK'
p635
S''
sS'SK'
p636
S''
sS'UK'
p637
S''
ssS'items'
p638
(dp639
sS'MN'
p640
S'N'
sS'Room_title'
p641
S'Employee BreakRoom'
p642
sS'MU'
p643
S'N'
sS'MW'
p644
S'Y'
sS'objects'
p645
(dp646
sS'MS'
p647
S'N'
sS'Room_Description'
p648
S'You walk into the Employee Break Room. Way to keep a low profile.'
p649
sS'monsters'
p650
(dp651
S'federation assassin'
p652
(dp653
S'stats'
p654
(lp655
S'10000'
p656
aS'1000'
p657
aS'1000'
p658
asS'name'
p659
g652
sS'description'
p660
S'A federation assassin on break.'
p661
ssssS'-1'
p662
(dp663
g558
S'Y'
sg559
S'n'
sg560
(dp664
sg562
S'N'
sg563
(dp665
g565
S''
sg566
S''
sg567
S''
sg568
S''
sg569
S''
sg570
S''
ssg572
(dp666
sg574
S'Y'
sg575
S'Hallway'
p667
sg577
S'N'
sg578
S'N'
sg579
(dp668
sg581
S'Y'
sg582
S'Your in a hallway on a Federation Ship. Try to blend in.'
p669
sg584
(dp670
sssS'3'
(dp671
S'1'
(dp672
S'ME'
p673
S'N'
sS'Is_Trap'
p674
S'n'
sS'traps'
p675
(dp676
sS'MD'
p677
S'N'
sS'keys'
p678
(dp679
S'NK'
p680
S''
sS'DK'
p681
S''
sS'EK'
p682
S''
sS'WK'
p683
S''
sS'SK'
p684
S''
sS'UK'
p685
S''
ssS'items'
p686
(dp687
S'lvl9 passcode'
p688
(dp689
S'item_value'
p690
S'0'
sS'item_class'
p691
S'k'
sS'item_use_msg'
p692
S'You use the lvl9 passcode.'
p693
sS'item_description'
p694
S'The lvl9 passcode, just what i needed.'
p695
sssS'MN'
p696
S'N'
sS'Room_title'
p697
S'Hidden Room'
p698
sS'MU'
p699
S'N'
sS'MW'
p700
S'N'
sS'objects'
p701
(dp702
sS'MS'
p703
S'Y'
sS'Room_Description'
p704
S"You've stumbled on a secret federation listening room. They spy on their people here. There are notes on the desk."
p705
sS'monsters'
p706
(dp707
sssS'2'
(dp708
S'1'
(dp709
S'ME'
p710
S'N'
sS'Is_Trap'
p711
S'Y'
sS'traps'
p712
(dp713
g711
S'y'
sS'fix broken switch'
p714
(dp715
S'Trap_Trigger_Phrase'
p716
g714
sS'item'
p717
(dp718
sg714
(dp719
S'Trap_Portal_Dest'
p720
(lp721
S'0'
aS'0'
aS'0'
aS'0'
asS'Trap_Trigger_Phrase'
p722
g714
sS'trap_class'
p723
S'sd'
p724
sS'Trap_Portal_MSG'
p725
S'You fix the broken switch and the wall opens to reveal a secret room.'
p726
ssS'SD'
p727
S'N'
sS'trap_class'
p728
S'sd'
p729
sS'Trap_Portal_MSG'
p730
S'You fix the broken switch. Then give a test run. After the  you activate the switch the wall to the north opens and reveals a hidden room.'
p731
sssS'MD'
p732
S'N'
sS'keys'
p733
(dp734
S'NK'
p735
S''
sS'DK'
p736
S''
sS'EK'
p737
S''
sS'WK'
p738
S''
sS'SK'
p739
S''
sS'UK'
p740
S''
ssS'items'
p741
(dp742
sS'MN'
p743
S'N'
sS'Room_title'
p744
S'End of the long hallway.'
p745
sS'MU'
p746
S'N'
sS'MW'
p747
S'N'
sS'objects'
p748
(dp749
S'a broken switch adorns the wall to the north.'
p750
S'You look at the broken switch. It looks easy enough to fix. You even have your tool kit.'
p751
ssS'MS'
p752
S'Y'
sS'Room_Description'
p753
S'Your at the end of the long hall way.'
p754
sS'monsters'
p755
(dp756
sssS'-1'
p757
(dp758
S'1'
(dp759
g588
S'N'
sg589
S'n'
sg590
(dp760
sg592
S'N'
sg593
(dp761
g595
S''
sg596
S''
sg597
S''
sg599
S''
sg600
S''
sg601
S''
ssg602
(dp762
sg604
S'Y'
sg605
S'A long hallway.'
p763
sg607
S'N'
sg608
S'Y'
sg609
(dp764
sg611
S'N'
sg612
S'The hallway continues to the west and north.'
p765
sg614
(dp766
ssS'0'
(dp767
S'ME'
p768
S'Y'
sS'Is_Trap'
p769
S'n'
sS'traps'
p770
(dp771
sS'MD'
p772
S'N'
sS'keys'
p773
(dp774
S'NK'
p775
S''
sS'DK'
p776
S''
sS'EK'
p777
S''
sS'WK'
p778
S''
sS'SK'
p779
S''
sS'UK'
p780
S''
ssS'items'
p781
(dp782
sS'MN'
p783
S'N'
sS'Room_title'
p784
S'Hallway '
p785
sS'MU'
p786
S'N'
sS'MW'
p787
S'Y'
sS'objects'
p788
(dp789
sS'MS'
p790
S'N'
sS'Room_Description'
p791
S'The hallway continues to the East and West. Better not get caught here.'
p792
sS'monsters'
p793
(dp794
ssS'-1'
p795
(dp796
S'ME'
p797
S'Y'
sS'Is_Trap'
p798
S''
sS'traps'
p799
(dp800
sS'MD'
p801
S'N'
sS'keys'
p802
(dp803
S'NK'
p804
S''
sS'DK'
p805
S''
sS'EK'
p806
S''
sS'WK'
p807
S''
sS'SK'
p808
S''
sS'UK'
p809
S''
ssS'items'
p810
(dp811
sS'MN'
p812
S'Y'
sS'Room_title'
p813
S'Hallway'
p814
sS'MU'
p815
S'N'
sS'MW'
p816
S'N'
sS'objects'
p817
(dp818
sS'MS'
p819
S'N'
sS'Room_Description'
p820
S'The Hallway continues to the North and East.'
p821
sS'monsters'
p822
(dp823
ssssS'3'
(dp824
S'1'
(dp825
S'-1'
p826
(dp827
g498
S'N'
sg499
S'n'
sg500
(dp828
sg502
S'Y'
sg503
(dp829
g505
S''
sg506
S'Y'
sg507
S''
sg508
S''
sg509
S''
sg510
S'LVL9 PASSCODE'
p830
ssg512
(dp831
sg514
S'N'
sg515
S'Level 4 Access Hatch'
p832
sg517
S'L'
sg518
S'N'
sg519
(dp833
sg521
S'N'
sg522
S'The level 4 access hatch, a ladder continues up and down. The enterance to level 4 is sealed.'
p834
sg524
(dp835
ssssS'2'
(dp836
S'1'
(dp837
S'-1'
p838
(dp839
g498
S'N'
sg499
S'n'
sg500
(dp840
sg502
S'Y'
sg503
(dp841
g505
S''
sg506
S''
sg507
S''
sg508
S''
sg509
S''
sg510
S'LVL9 PASSCODE'
p842
ssg512
(dp843
sg514
S'N'
sg515
S'Lvl3 Access Hatch'
p844
sg517
S'L'
sg518
S'N'
sg519
(dp845
sg521
S'N'
sg522
S'The Ladder continues up and down. The entrance to LVL3 is sealed.'
p846
sg524
(dp847
ssssS'5'
(dp848
S'1'
(dp849
S'-1'
p850
(dp851
S'ME'
p852
S'N'
sS'Is_Trap'
p853
S'n'
sS'traps'
p854
(dp855
sS'MD'
p856
S'Y'
sS'keys'
p857
(dp858
S'NK'
p859
S'N'
sS'DK'
p860
S''
sS'EK'
p861
S''
sS'WK'
p862
S''
sS'SK'
p863
S''
sS'UK'
p864
S'LVL9 PASSCODE'
p865
ssS'items'
p866
(dp867
sS'MN'
p868
S'N'
sS'Room_title'
p869
S'Level 6 access hatch'
p870
sS'MU'
p871
S'L'
sS'MW'
p872
S'N'
sS'objects'
p873
(dp874
sS'MS'
p875
S'N'
sS'Room_Description'
p876
S'The enterance to Level 6 is sealed shut. A ladder continues up and down.'
p877
sS'monsters'
p878
(dp879
ssssS'4'
(dp880
S'1'
(dp881
S'-1'
p882
(dp883
g498
S'N'
sg499
S'n'
sg500
(dp884
sg502
S'Y'
sg503
(dp885
g505
S''
sg506
S'Y'
sg507
S''
sg508
S''
sg509
S''
sg510
S'LVL9 PASSCODE'
p886
ssg512
(dp887
sg514
S'N'
sg515
S'Level 5 Access Hatch'
p888
sg517
S'L'
sg518
S'N'
sg519
(dp889
sg521
S'N'
sg522
S'The Level 5 enterance is seal shut. A ladder continues up and down.'
p890
sg524
(dp891
ssssS'7'
(dp892
S'1'
(dp893
S'-1'
p894
(dp895
S'ME'
p896
S'N'
sS'Is_Trap'
p897
S''
sS'traps'
p898
(dp899
sS'MD'
p900
S'Y'
sS'keys'
p901
(dp902
S'NK'
p903
S''
sS'DK'
p904
S''
sS'EK'
p905
S''
sS'WK'
p906
S''
sS'SK'
p907
S''
sS'UK'
p908
S'LVL9 PASSCODE'
p909
ssS'items'
p910
(dp911
sS'MN'
p912
S'N'
sS'Room_title'
p913
S'Level 8 Access Hatch'
p914
sS'MU'
p915
S'L'
sS'MW'
p916
S'N'
sS'objects'
p917
(dp918
sS'MS'
p919
S'N'
sS'Room_Description'
p920
S'The enterance to level 8 is sealed. A ladder continues up and down.'
p921
sS'monsters'
p922
(dp923
ssssS'6'
(dp924
S'1'
(dp925
S'-1'
p926
(dp927
g852
S'N'
sg853
S'n'
sg854
(dp928
sg856
S'Y'
sg857
(dp929
g859
S'N'
sg860
S''
sg861
S''
sg862
S''
sg863
S'N'
sg864
S'LVL9 PASSCODE'
p930
ssg866
(dp931
sg868
S'N'
sg869
S'Level 7 Access Hatch'
p932
sg871
S'L'
sg872
S''
sg873
(dp933
sg875
S'N'
sg876
S'The enterance to level 7 is sealed. A ladder continues up and down.'
p934
sg878
(dp935
ssssS'8'
(dp936
S'1'
(dp937
S'-1'
p938
(dp939
S'ME'
p940
S'N'
sS'Is_Trap'
p941
S'n'
sS'traps'
p942
(dp943
sS'MD'
p944
S'Y'
sS'keys'
p945
(dp946
S'NK'
p947
S'LVL9 PASSCODE'
p948
sS'DK'
p949
S''
sS'EK'
p950
S''
sS'WK'
p951
S''
sS'SK'
p952
S''
sS'UK'
p953
S''
ssS'items'
p954
(dp955
sS'MN'
p956
S'L'
sS'Room_title'
p957
S'Level 9 Access Hatch'
p958
sS'MU'
p959
S'N'
sS'MW'
p960
S'N'
sS'objects'
p961
(dp962
sS'MS'
p963
S'N'
sS'Room_Description'
p964
S'The level 9 Access hatch'
p965
sS'monsters'
p966
(dp967
sssS'2'
(dp968
S'-1'
p969
(dp970
S'ME'
p971
S'N'
sS'Is_Trap'
p972
S'Y'
sS'traps'
p973
(dp974
g972
S'y'
sS'install computer virus'
p975
(dp976
g975
(dp977
S'Trap_Portal_Dest'
p978
(lp979
S'0'
aS'0'
aS'0'
aS'0'
asS'Trap_Trigger_Phrase'
p980
g975
sS'trap_class'
p981
S'P'
sS'Trap_Portal_MSG'
p982
S'You install'
p983
ssS'item'
p984
(dp985
sS'Trap_Trigger_Phrase'
p986
g975
sS'Trap_Portal_Dest'
p987
(lp988
S'0'
aS'0'
aS'0'
aS'0'
asS'Trap_Portal_MSG'
p989
S'You install the virus on the computer terminal and it spreads through the federations mainframe, their currency value changed to 0, the empire begins to crumple.'
p990
sS'trap_class'
p991
S'P'
sS'SD'
p992
S'X'
sssS'MD'
p993
S'N'
sS'keys'
p994
(dp995
S'NK'
p996
S''
sS'DK'
p997
S''
sS'EK'
p998
S''
sS'WK'
p999
S''
sS'SK'
p1000
S''
sS'UK'
p1001
S''
ssS'items'
p1002
(dp1003
sS'MN'
p1004
S'N'
sS'Room_title'
p1005
S'Lvl 9 Command Center'
p1006
sS'MU'
p1007
S'N'
sS'MW'
p1008
S'N'
sS'objects'
p1009
(dp1010
S'bank of computers'
p1011
S'A bank of computers linked to the federations inter-galactic mainframe. You could load a virus on this and take down the empire.'
p1012
ssS'MS'
p1013
S'Y'
sS'Room_Description'
p1014
S'You are in the command center. There is a bank of computers along the wall.'
p1015
sS'monsters'
p1016
(dp1017
ssssS'monsters'
p1018
(dp1019
S'hammer-ai'
p1020
(dp1021
S'stats'
p1022
(lp1023
I2153
aI209
aI278
asS'name'
p1024
g1020
sS'description'
p1025
S'Your best bug Hammer-ai'
p1026
ssS'arachni-beth'
p1027
(dp1028
g1022
(lp1029
I1416
aI219
aI871
asg1024
g1027
sg1025
S'An Arcana-Beth.'
p1030
ssS'jerry slug'
p1031
(dp1032
g1022
(lp1033
I1744
aI729
aI928
asg1024
g1031
sg1025
S'A Jerry Slug.'
p1034
ssS'scary terry minion'
p1035
(dp1036
g1022
(lp1037
I129
aI89
aI15
asg1024
g1035
sg1025
S'A minion'
p1038
sssS'store'
p1039
(dp1040
g463
(dp1041
S'strong health potion'
p1042
(dp1043
g467
g1042
sg468
S'94'
p1044
sg470
S'P'
sg471
S'A big health Potion'
p1045
sS'item_cost'
p1046
I50
ssS'portal fluid'
p1047
(dp1048
g467
g1047
sg468
S'23'
p1049
sg470
g476
sg471
g1047
sg1046
I50
ssS'big shmeckles'
p1050
(dp1051
g467
g1050
sg468
S'312'
p1052
sg470
S'G'
sg471
S'A big Shmeckle!'
p1053
sg1046
I50
ssg481
(dp1054
g467
S'some shmeckles'
p1055
sg468
S'100'
p1056
sg470
S'G'
sg471
S'A small pile of shmeckles'
p1057
sg1046
I50
ssS'big portal fluid'
p1058
(dp1059
g467
g1058
sg468
S'30'
p1060
sg470
g476
sg471
S'A big portal fluid.'
p1061
sg1046
I50
ssS'health potion'
p1062
(dp1063
g467
g1062
sg468
S'46'
p1064
sg470
S'P'
sg471
S'A health Potion'
p1065
sg1046
I50
sssssS'0'
(dp1066
S'0'
(dp1067
S'1'
(dp1068
S'1'
(dp1069
S'ME'
p1070
S'N'
sS'Is_Trap'
p1071
S'n'
sS'traps'
p1072
(dp1073
sS'MD'
p1074
S'N'
sS'keys'
p1075
(dp1076
S'NK'
p1077
S''
sS'DK'
p1078
S''
sS'EK'
p1079
S''
sS'WK'
p1080
S''
sS'SK'
p1081
S''
sS'UK'
p1082
S''
ssS'items'
p1083
(dp1084
sS'MN'
p1085
S'N'
sS'Room_title'
p1086
S'Summers Closet'
p1087
sS'MU'
p1088
S'N'
sS'MW'
p1089
S'N'
sS'objects'
p1090
(dp1091
sS'MS'
p1092
S'Y'
sS'Room_Description'
p1093
S"Summers Closet, you'd better not get caught in here."
p1094
sS'monsters'
p1095
(dp1096
ssS'0'
(dp1097
S'ME'
p1098
S'N'
sS'MD'
p1099
S'N'
sS'Trap_Trigger_Phrase'
p1100
NsS'traps'
p1101
(dp1102
S'Is_Trap'
p1103
S'Y'
sS'Trap_Portal_MSG'
p1104
S'A Secret door opens.'
p1105
sN(dp1106
S'Trap_Portal_Dest'
p1107
(lp1108
S'-999'
p1109
ag1109
ag1109
ag1109
asS'Trap_Trigger_Phrase'
p1110
NsS'trap_class'
p1111
S'P'
sg1104
NssS'flip hidden switch'
p1112
(dp1113
S'item'
p1114
(dp1115
sS'Trap_Portal_MSG'
p1116
S'trap'
p1117
sS'Trap_Trigger_Phrase'
p1118
g1112
sS'trap_class'
p1119
S'SD'
p1120
sS'SD'
p1121
S'E'
sssS'Is_Trap'
p1122
S'Y'
sS'keys'
p1123
(dp1124
S'NK'
p1125
S''
sS'DK'
p1126
S''
sS'EK'
p1127
S''
sS'WK'
p1128
S''
sS'SK'
p1129
S''
sS'UK'
p1130
S''
ssS'items'
p1131
(dp1132
S'sr-baba'
p1133
(dp1134
S'item_value'
p1135
S'9999'
p1136
sS'item_class'
p1137
S'A'
sS'item_use_msg'
p1138
S'Now your a bad ass.'
p1139
sS'item_description'
p1140
S'Simple Ricks Body Armor'
p1141
sssS'MN'
p1142
S'N'
sS'Room_title'
p1143
S'mortys closet'
p1144
sS'MU'
p1145
S'N'
sS'Trap_Portal_Dest'
p1146
g1108
sS'MW'
p1147
S'N'
sS'objects'
p1148
(dp1149
sS'MS'
p1150
S'Y'
sS'Room_Description'
p1151
S'Mortys Closet'
p1152
sS'monsters'
p1153
(dp1154
S'jerry slug'
p1155
(dp1156
S'stats'
p1157
(lp1158
S'999'
p1159
aS'100'
p1160
aS'300'
p1161
asS'name'
p1162
g1155
sS'description'
p1163
S'jerry is a slug, ew so slimey.'
p1164
sssS'Trap_Portal_MSG'
p1165
NsssS'0'
(dp1166
S'1'
(dp1167
g132
S'N'
sg133
S'n'
sg150
S'N'
sg145
S'N'
sg148
(dp1168
sg134
Nsg151
S'Summers Bedroom'
p1169
sg152
S'N'
sg153
(lp1170
g141
ag141
ag141
ag141
asg154
S'N'
sg155
(dp1171
sg157
S'Y'
sg158
S'Summers Bedroom.'
p1172
sg159
(dp1173
sg161
NssS'0'
(dp1174
S'ME'
p1175
S'N'
sS'Is_Trap'
p1176
S'Y'
sS'Trap_Trigger_Phrase'
p1177
S'aw jeeze rick'
p1178
sS'traps'
p1179
(dp1180
g1178
(dp1181
S'Trap_Portal_Dest'
p1182
(lp1183
S'-1'
p1184
aS'0'
aS'0'
aS'0'
asS'Trap_Portal_MSG'
p1185
S'Boom, Your a Pickle. No wait your just in Ricks Lab.'
p1186
sS'Trap_Trigger_Phrase'
p1187
g1178
sS'trap_class'
p1188
S'P'
sS'item'
p1189
(dp1190
ssS'kick bed'
p1191
(dp1192
g1182
(lp1193
S'0'
aS'0'
aS'0'
aS'0'
asS'Trap_Trigger_Phrase'
p1194
g1191
sS'dirty comic'
p1195
(dp1196
S'item_name'
p1197
g1195
sS'item_value'
p1198
S'0'
sS'item_class'
p1199
S'K'
sS'item_use_msg'
p1200
S'You read the dirty comic.'
p1201
sS'item_description'
p1202
S'A dirty comic'
p1203
ssg1188
S'I'
sS'Trap_Portal_MSG'
p1204
S'trap'
p1205
ssS'Is_Trap'
p1206
S'Y'
ssS'MD'
p1207
S'N'
sS'keys'
p1208
(dp1209
S'NK'
p1210
S'NOOB NOOB STATUE'
p1211
sS'DK'
p1212
S''
sS'EK'
p1213
S''
sS'WK'
p1214
S''
sS'SK'
p1215
S''
sS'UK'
p1216
S''
ssS'items'
p1217
(dp1218
sS'MN'
p1219
S'L'
sS'Room_title'
p1220
S'Mortys Room'
p1221
sS'MU'
p1222
S'N'
sS'Trap_Portal_Dest'
p1223
g1183
sS'MW'
p1224
S'N'
sS'objects'
p1225
(dp1226
S'mortys bed'
p1227
S'Aw Jeeze Rick, dont look in there.'
p1228
ssS'MS'
p1229
S'Y'
sS'Room_Description'
p1230
S'It smells bad in here. There are comics and laundry all over. There is a bed, and a door to the south.'
p1231
sS'monsters'
p1232
(dp1233
sS'Trap_Portal_MSG'
p1234
S'none'
p1235
ssS'-1'
p1236
(dp1237
g132
S'N'
sg133
S'n'
sg134
NsS'traps'
p1238
(dp1239
S'Is_Trap'
p1240
S'Y'
sN(dp1241
S'Trap_Portal_Dest'
p1242
(lp1243
g141
ag141
ag141
ag141
asS'Trap_Trigger_Phrase'
p1244
NsS'trap_class'
p1245
S'P'
sS'Trap_Portal_MSG'
p1246
Nsssg145
S'N'
sS'keys'
p1247
(dp1248
S'NK'
p1249
S'N'
sS'DK'
p1250
S'N'
sS'EK'
p1251
S'N'
sS'WK'
p1252
S'N'
sS'SK'
p1253
S'N'
sS'UK'
p1254
S'N'
ssg148
(dp1255
sg150
S'N'
sg151
S'Parents Bedroom'
p1256
sg152
S'N'
sg153
g1243
sg154
S'Y'
sg155
(dp1257
sg157
S'Y'
sg158
S'The parents bedroom'
p1258
sg159
(dp1259
sg161
NssS'-2'
p1260
(dp1261
S'ME'
p1262
S'Y'
sg1240
S'n'
sg1238
(dp1263
sS'MD'
p1264
S'N'
sg1247
(dp1265
g1249
S''
sg1250
S''
sg1251
S''
sg1252
S''
sg1253
S''
sg1254
S''
ssS'items'
p1266
(dp1267
sS'MN'
p1268
S'N'
sS'Room_title'
p1269
S'Parents Bathroom'
p1270
sS'MU'
p1271
S'N'
sS'MW'
p1272
S'N'
sS'objects'
p1273
(dp1274
sS'MS'
p1275
S'N'
sS'Room_Description'
p1276
S'Your in your parents bathroom'
p1277
sS'monsters'
p1278
(dp1279
sssS'-1'
p1280
(dp1281
S'1'
(dp1282
g132
S'N'
sg133
S'n'
sg150
S'Y'
sg145
S'Y'
sg148
(dp1283
sg134
Nsg151
S'Top of Stairs'
p1284
sg152
S'N'
sg153
(lp1285
g141
ag141
ag141
ag141
asg154
S'Y'
sg155
(dp1286
sg157
S'N'
sg158
S'Top of Stairs. Summers room is North. Stairs lead down.'
p1287
sg159
(dp1288
sg161
NssS'0'
(dp1289
S'ME'
p1290
S'Y'
sS'Is_Trap'
p1291
S'y'
sS'MN'
p1292
S'Y'
sS'traps'
p1293
(dp1294
S'Is_Trap'
p1295
S'Y'
sS'jump off walls'
p1296
(dp1297
S'Trap_Portal_Dest'
p1298
(lp1299
S'0'
aS'0'
aS'0'
aS'0'
asS'Trap_Trigger_Phrase'
p1300
g1296
sS'item'
p1301
(dp1302
sS'trap_class'
p1303
S'P'
sS'Trap_Portal_MSG'
p1304
S'You jump of the walls and land in your room.'
p1305
sssS'MD'
p1306
S'N'
sS'keys'
p1307
(dp1308
S'NK'
p1309
S'N'
sS'DK'
p1310
S'N'
sS'EK'
p1311
S'N'
sS'WK'
p1312
S'N'
sS'SK'
p1313
S'N'
sS'UK'
p1314
S'N'
ssS'items'
p1315
(dp1316
sS'Trap_Trigger_Phrase'
p1317
g1296
sS'Room_title'
p1318
S'hallway'
p1319
sS'MU'
p1320
S'N'
sS'Trap_Portal_Dest'
p1321
g1299
sS'MW'
p1322
S'Y'
sS'objects'
p1323
(dp1324
sS'MS'
p1325
S'Y'
sS'Room_Description'
p1326
S'hallway'
p1327
sS'monsters'
p1328
(dp1329
sS'Trap_Portal_MSG'
p1330
g1305
ssS'-1'
p1331
(dp1332
g132
S'Y'
sg133
S'n'
sg134
NsS'traps'
p1333
(dp1334
S'Is_Trap'
p1335
S'Y'
sN(dp1336
S'Trap_Portal_Dest'
p1337
(lp1338
g141
ag141
ag141
ag141
asS'Trap_Trigger_Phrase'
p1339
NsS'trap_class'
p1340
S'P'
sS'Trap_Portal_MSG'
p1341
Nsssg145
S'N'
sS'keys'
p1342
(dp1343
sg148
(dp1344
sg150
S'Y'
sg151
S'End of Hallway'
p1345
sg152
S'N'
sg153
g1338
sg154
S'N'
sg155
(dp1346
sg157
S'N'
sg158
S'Your in the end of the hallway. to the north is the parents bedroom.'
p1347
sg159
(dp1348
S'big fly'
p1349
(dp1350
S'stats'
p1351
(lp1352
S'10'
p1353
aS'1'
aS'1'
asS'name'
p1354
g1349
sS'description'
p1355
S'a big fly'
p1356
sssg161
NsssS'-2'
p1357
(dp1358
S'0'
(dp1359
g1262
S'N'
sg1240
S'n'
sg1238
(dp1360
sg1264
S'N'
sg1247
(dp1361
g1249
S''
sg1250
S''
sg1251
S''
sg1252
S''
sg1253
S''
sg1254
S''
ssg1266
(dp1362
sg1268
S'Y'
sg1269
S'Hall Bathroom'
p1363
sg1271
S'N'
sg1272
S'N'
sg1273
(dp1364
sg1275
S'N'
sg1276
S'The hall bathroom'
p1365
sg1278
(dp1366
ssssS'-1'
p1367
(dp1368
S'1'
(dp1369
S'1'
(dp1370
g132
S''
sg133
S''
sg150
S''
sg145
S''
sg148
(dp1371
sg134
Nsg151
S'f'
sg152
S''
sg153
(lp1372
g141
ag141
ag141
ag141
asg154
S''
sg155
(dp1373
sg157
S''
sg158
S''
sg159
(dp1374
sg161
NsssS'0'
(dp1375
S''
(dp1376
g132
S''
sg133
S''
sg150
S''
sg145
S''
sg148
(dp1377
sg134
Nsg151
S''
sg152
S''
sg153
(lp1378
g141
ag141
ag141
ag141
asg154
S''
sg155
(dp1379
sg157
S''
sg158
S''
sg159
(dp1380
sg161
NssS'0'
(dp1381
S'ME'
p1382
S'N'
sS'Is_Trap'
p1383
S'n'
sS'traps'
p1384
(dp1385
sS'MD'
p1386
S'N'
sS'keys'
p1387
(dp1388
S'NK'
p1389
S''
sS'DK'
p1390
S''
sS'EK'
p1391
S''
sS'WK'
p1392
S''
sS'SK'
p1393
S''
sS'UK'
p1394
S''
ssS'items'
p1395
(dp1396
sS'MN'
p1397
S'N'
sS'Room_title'
p1398
S'The Dining Room'
p1399
sS'MU'
p1400
S'N'
sS'MW'
p1401
S'Y'
sS'objects'
p1402
(dp1403
sS'MS'
p1404
S'Y'
sS'Room_Description'
p1405
S' You enter the Dining Room. There is a large table covered in a checkered yellow table cloth surrounded by six chairs. On the wall hang several copy cat paintings.'
p1406
sS'monsters'
p1407
(dp1408
ssS'-1'
p1409
(dp1410
S'ME'
p1411
S'Y'
sS'Is_Trap'
p1412
S'n'
sS'traps'
p1413
(dp1414
sS'MD'
p1415
S'N'
sS'keys'
p1416
(dp1417
S'NK'
p1418
S''
sS'DK'
p1419
S''
sS'EK'
p1420
S''
sS'WK'
p1421
S''
sS'SK'
p1422
S''
sS'UK'
p1423
S''
ssS'items'
p1424
(dp1425
sS'MN'
p1426
S'N'
sS'Room_title'
p1427
S'Bathroom'
p1428
sS'MU'
p1429
S'N'
sS'MW'
p1430
S'N'
sS'objects'
p1431
(dp1432
sS'MS'
p1433
S'N'
sS'Room_Description'
p1434
S'The Downstairs Bathroom. A immitation Van Goghe Painting is hanging on the wall.\\'
p1435
sS'monsters'
p1436
(dp1437
sssS'-1'
p1438
(dp1439
S'1'
(dp1440
g132
S'N'
sg133
S'Y'
sg134
NsS'traps'
p1441
(dp1442
S'Is_Trap'
p1443
S'Y'
sS'adjust tint'
p1444
(dp1445
S'item'
p1446
(dp1447
sS'Trap_Portal_MSG'
p1448
S'You adjust the tint, and a blue light envelopes you. Suddenly your in Jerry-Care.'
p1449
sS'Trap_Trigger_Phrase'
p1450
g1444
sS'trap_class'
p1451
S'P'
sS'Trap_Portal_Dest'
p1452
g119
ssN(dp1453
S'Trap_Portal_Dest'
p1454
(lp1455
g141
ag141
ag141
ag141
asS'Trap_Trigger_Phrase'
p1456
NsS'trap_class'
p1457
S'P'
sS'Trap_Portal_MSG'
p1458
Nssg1458
S'As you adjust the tint, you are surrounded by blue light, and then you find yourself at Jerry-Care.'
p1459
ssg145
S'N'
sS'keys'
p1460
(dp1461
sg148
(dp1462
sg150
S'N'
sg151
S'Living Room'
p1463
sg152
S'Y'
sg153
g1455
sg154
S'Y'
sg155
(dp1464
S'tv'
p1465
S'The tv is showing a news story about the presidents bout with cancer. The tint is too high, making him look sicker.'
p1466
ssg157
S'N'
sg158
S'In the Living room. There is a TV. The Kitchen is West.'
p1467
sg159
(dp1468
sg161
NssS'0'
(dp1469
g132
S'Y'
sg133
S'n'
sg134
Nsg1384
(dp1470
g1383
S'Y'
sN(dp1471
S'Trap_Portal_Dest'
p1472
(lp1473
g141
ag141
ag141
ag141
asS'Trap_Trigger_Phrase'
p1474
NsS'trap_class'
p1475
S'P'
sS'Trap_Portal_MSG'
p1476
Nsssg145
S'N'
sg1387
(dp1477
S'NK'
p1478
S''
sS'DK'
p1479
S''
sS'EK'
p1480
S''
sS'WK'
p1481
S''
sS'SK'
p1482
S''
sS'UK'
p1483
S''
ssg148
(dp1484
sg150
S'Y'
sg151
S'Kitchen'
p1485
sg152
S'N'
sg153
g1473
sg154
S'Y'
sg155
(dp1486
sg157
S'N'
sg158
S'The Kitchen. The garage is west, the living room is east.'
p1487
sg159
(dp1488
sg161
NssS'-1'
p1489
(dp1490
g132
S'Y'
sg133
S'Y'
sg150
S'N'
sS'traps'
p1491
(dp1492
S'arange dead flys'
p1493
(dp1494
S'Trap_Portal_Dest'
p1495
(lp1496
S'-1'
p1497
aS'0'
aS'0'
aS'0'
asS'Trap_Trigger_Phrase'
p1498
g1493
sS'item'
p1499
(dp1500
sS'trap_class'
p1501
S'P'
sS'Trap_Portal_MSG'
p1502
S'You are warped to ricks secret lab.'
p1503
ssS'Is_Trap'
p1504
S'Y'
ssg145
S'N'
sS'keys'
p1505
(dp1506
S'NK'
p1507
S''
sS'DK'
p1508
S''
sS'EK'
p1509
S''
sS'WK'
p1510
S''
sS'SK'
p1511
S''
sS'UK'
p1512
S''
ssg148
(dp1513
sg134
g1493
sg151
S'The Garage.'
p1514
sg152
S'N'
sg153
g1496
sg154
S'N'
sg155
(dp1515
S'dead flys'
p1516
S'These must mean something.'
p1517
sS'workbench'
p1518
S'There are flys on the workbench.'
p1519
ssg157
S'N'
sg158
S'Ricks workbench is to the left. The Kitchen is to the   west.'
p1520
sg159
(dp1521
sg161
g1503
ssssS'monsters'
p1522
(dp1523
S'hammer-ai'
p1524
(dp1525
S'stats'
p1526
(lp1527
I-15087
aI230
aI861
asS'name'
p1528
g1524
sS'description'
p1529
S'Your best bug Hammer-ai'
p1530
ssS'infinite rick minion'
p1531
(dp1532
S'drop_unq'
p1533
S'Y'
sS'description'
p1534
S'A Minion of The Infinite Rick'
p1535
sS'stats'
p1536
(lp1537
S'1000'
p1538
aS'100'
p1539
aS'100'
p1540
asS'unq_item'
p1541
(dp1542
S'access badge'
p1543
(dp1544
S'item_name'
p1545
g1543
sS'item_value'
p1546
S'0'
sS'item_class'
p1547
S'K'
sS'item_use_msg'
p1548
S'You unlock the Citadel Door.'
p1549
sS'item_description'
p1550
S'A Citadel Level 9 Access Badge.'
p1551
sssS'name'
p1552
g1531
ssS'arachni-beth'
p1553
(dp1554
g1526
(lp1555
I1818
aI774
aI926
asg1528
g1553
sg1529
S'An Arcana-Beth.'
p1556
ssS'jerry slug'
p1557
(dp1558
g1526
(lp1559
I2864
aI642
aI865
asg1528
g1557
sg1529
S'A Jerry Slug.'
p1560
ssS'scary terry minion'
p1561
(dp1562
g1526
(lp1563
I242
aI58
aI21
asg1528
g1561
sg1529
S'A minion'
p1564
sssS'store'
p1565
(dp1566
S'items'
p1567
(dp1568
S'strong health potion'
p1569
(dp1570
S'item_name'
p1571
g1569
sS'item_value'
p1572
S'57'
p1573
sS'item_class'
p1574
S'P'
sS'item_cost'
p1575
I50
sS'item_description'
p1576
S'A big health Potion'
p1577
ssS'portal fluid'
p1578
(dp1579
g1571
g1578
sg1572
S'20'
p1580
sg1574
S'PF'
p1581
sg1575
I50
sg1576
g1578
ssS'big shmeckles'
p1582
(dp1583
g1571
g1582
sg1572
S'107'
p1584
sg1574
S'G'
sg1575
I50
sg1576
S'A big Shmeckle!'
p1585
ssS'shmeckles'
p1586
(dp1587
g1571
S'some shmeckles'
p1588
sg1572
S'37'
p1589
sg1574
S'G'
sg1575
I50
sg1576
S'A small pile of shmeckles'
p1590
ssS'big portal fluid'
p1591
(dp1592
g1571
g1591
sg1572
S'33'
p1593
sg1574
g1581
sg1575
I50
sg1576
S'A big portal fluid.'
p1594
ssS'health potion'
p1595
(dp1596
g1571
g1595
sg1572
S'25'
p1597
sg1574
S'P'
sg1575
I50
sg1576
S'A health Potion'
p1598
ssssS'items'
p1599
(dp1600
S'strong health potion'
p1601
(dp1602
g92
g1601
sg93
S'70'
p1603
sg95
S'P'
sg96
S'A big health Potion'
p1604
ssS'schechuan sauce recipe'
p1605
(dp1606
S'item_value'
p1607
S'0'
sS'item_use_msg'
p1608
S'You learn rick schechuan sauce recipe.'
p1609
sS'item_name'
p1610
g1605
sS'recipe'
p1611
(dp1612
S'schechuan sauce'
p1613
(dp1614
S'item_value'
p1615
S'200'
p1616
sS'item_use_msg'
p1617
S'schechuan sauce'
p1618
sS'item_class'
p1619
S'p'
sS'req_c_items'
p1620
(lp1621
I2
aI2
asS'req_items'
p1622
(lp1623
S'portal fluid'
p1624
aS'health potion'
p1625
asS'item_description'
p1626
S'schechuan sauce'
p1627
sssS'item_class'
p1628
S'cr'
p1629
sS'item_description'
p1630
S'a recipe for schechuan sauce. ricks really put in time on this.'
p1631
ssS'ammo pack'
p1632
(dp1633
S'item_name'
p1634
g1632
sS'item_value'
p1635
S'50'
p1636
sS'item_class'
p1637
S'ammo'
p1638
sS'item_use_msg'
p1639
S'its ammo'
p1640
sS'item_description'
p1641
S'ammo pack'
p1642
ssS'portal fluid'
p1643
(dp1644
g92
g1643
sg93
S'11'
p1645
sg95
S'PF'
p1646
sg96
g1643
ssS'morty sauce recipe'
p1647
(dp1648
S'item_value'
p1649
S'0'
sS'item_use_msg'
p1650
S'You learn how to make morty sauce.'
p1651
sS'item_name'
p1652
g1647
sS'recipe'
p1653
(dp1654
S'MORTY SAUCE PACKET'
p1655
(dp1656
S'item_value'
p1657
S'0'
sS'item_class'
p1658
S'ci'
p1659
sS'item_use_msg'
p1660
S'Cant use it. its for crafting.'
p1661
sS'req_items'
p1662
(lp1663
S'dirty comic'
p1664
aS'portal fluid'
p1665
asS'item_description'
p1666
S'A packet of morty sauce'
p1667
sssS'item_class'
p1668
S'CR'
p1669
sS'item_description'
p1670
S'Recipe for Morty sauce.'
p1671
ssS'big shmeckles'
p1672
(dp1673
g92
g1672
sg93
S'386'
p1674
sg95
S'G'
sg96
S'A big Shmeckle!'
p1675
ssS'shmeckles'
p1676
(dp1677
g92
S'some shmeckles'
p1678
sg93
S'73'
p1679
sg95
S'G'
sg96
S'A small pile of shmeckles'
p1680
ssS'big portal fluid'
p1681
(dp1682
g92
g1681
sg93
S'30'
p1683
sg95
g1646
sg96
S'A big portal fluid.'
p1684
ssS'health potion'
p1685
g91
sssS'-1'
p1686
(dp1687
S'0'
(dp1688
S'1'
(dp1689
S'3'
(dp1690
g132
S'N'
sg133
S'n'
sg150
S'N'
sS'traps'
p1691
(dp1692
S'Is_Trap'
p1693
S'Y'
sN(dp1694
S'Trap_Portal_Dest'
p1695
(lp1696
g141
ag141
ag141
ag141
asS'Trap_Trigger_Phrase'
p1697
NsS'trap_class'
p1698
S'P'
sS'Trap_Portal_MSG'
p1699
Nsssg145
S'N'
sS'keys'
p1700
(dp1701
sg148
(dp1702
sg134
Nsg151
S'Secret Lab'
p1703
sg152
S'N'
sg153
g1696
sg154
S'N'
sg155
(dp1704
sg157
S'N'
sg158
S'Your in a secret room. it seems like there is no exit.'
p1705
sg159
(dp1706
sg161
NsssS'0'
(dp1707
S'1'
(dp1708
g132
S'Y'
sg133
S'n'
sg150
S'N'
sg145
S'N'
sg148
(dp1709
sg134
Nsg151
S'Last storage.'
p1710
sg152
S'N'
sg153
(lp1711
g141
ag141
ag141
ag141
asg154
S'N'
sg155
(dp1712
sg157
S'Y'
sg158
S'Even more creepy stuff.'
p1713
sg159
(dp1714
sg161
NssS'0'
(dp1715
S'ME'
p1716
S'Y'
sS'Is_Trap'
p1717
S'y'
sS'MN'
p1718
S'N'
sg1691
(dp1719
S'arange dead flys'
p1720
(dp1721
g1695
(lp1722
S'-1'
p1723
aS'0'
aS'1'
aS'3'
asg1697
g1720
sg1698
S'P'
sg1699
S'Boom, your a pickle.'
p1724
ssg1693
S'Y'
ssS'MD'
p1725
S'N'
sg1700
(dp1726
sS'items'
p1727
(dp1728
sS'Trap_Trigger_Phrase'
p1729
g1720
sS'Room_title'
p1730
S'Ricks Lab'
p1731
sS'MU'
p1732
S'N'
sS'Trap_Portal_Dest'
p1733
g1722
sS'MW'
p1734
S'N'
sS'objects'
p1735
(dp1736
S'dead flys'
p1737
S'There are five dead flys on the work bench'
p1738
sS'work bench'
p1739
S'Its my work bench morty. There are some dead flys on the top of the work bench.'
p1740
ssS'MS'
p1741
S'Y'
sS'Room_Description'
p1742
S'Its My Lab, Wub-Ah-Dub-Dub. Theres a workbench on one wall.'
p1743
sg159
(dp1744
sg161
g1724
sssS'-1'
p1745
(dp1746
S'1'
(dp1747
g132
S'N'
sg133
S'n'
sg150
S'Y'
sg145
S'N'
sg148
(dp1748
sg134
Nsg151
S'More Storage.'
p1749
sg152
S'N'
sg153
(lp1750
g141
ag141
ag141
ag141
asg154
S'Y'
sg155
(dp1751
sg157
S'N'
sg158
S'More creepy stuff. '
p1752
sg159
(dp1753
sg161
NssS'0'
(dp1754
g132
S'Y'
sg133
S'n'
sg150
S'Y'
sg145
S'N'
sg148
(dp1755
sg134
Nsg151
S'Ricks Storage.'
p1756
sg152
S'N'
sg153
(lp1757
g141
ag141
ag141
ag141
asg154
S'N'
sg155
(dp1758
sg157
S'N'
sg158
S'Its full of creepy stuff.'
p1759
sg159
(dp1760
sg161
Nssssg1522
(dp1761
g1524
(dp1762
g1526
(lp1763
I1397
aI486
aI230
asg1528
g1524
sg1529
g1530
ssg1553
(dp1764
g1526
(lp1765
I2042
aI334
aI104
asg1528
g1553
sg1529
g1556
ssg1557
(dp1766
g1526
(lp1767
I1661
aI649
aI116
asg1528
g1557
sg1529
g1560
ssS'auto sentry'
p1768
(dp1769
S'stats'
p1770
(lp1771
S'1000'
p1772
aS'100'
p1773
aS'100'
p1774
asS'name'
p1775
g1768
sS'description'
p1776
S'An automatic security sentry, with lasers.'
p1777
ssg1561
(dp1778
g1526
(lp1779
I252
aI43
aI57
asg1528
g1561
sg1529
g1564
sssg1599
(dp1780
g1601
(dp1781
g92
g1601
sg93
S'82'
p1782
sg95
S'P'
sg96
g1604
ssg1643
(dp1783
g92
g1643
sg93
S'11'
p1784
sg95
g1646
sg96
g1643
ssg1672
(dp1785
g92
g1672
sg93
S'310'
p1786
sg95
S'G'
sg96
g1675
ssg1676
(dp1787
g92
g1678
sg93
S'65'
p1788
sg95
S'G'
sg96
g1680
ssg1681
(dp1789
g92
g1681
sg93
S'42'
p1790
sg95
g1646
sg96
g1684
ssg1685
(dp1791
g92
g1685
sg93
S'46'
p1792
sg95
S'P'
sg96
g97
ssssS'crafts'
p1793
(dp1794
S'z dust'
p1795
(dp1796
S'item_name'
p1797
g1795
sS'item_value'
p1798
S'20'
p1799
sS'item_class'
p1800
S'P'
sS'req_items'
p1801
(lp1802
S'noob noob statue'
p1803
aS'bfg-9k'
p1804
asS'item_description'
p1805
S"A pile of Z dust. D'ya know what we could do with this Morty?"
p1806
ssS'rick wallbanger'
p1807
(dp1808
g1798
S'10'
p1809
sS'item_use_msg'
p1810
S"Now We're getting shwifty."
p1811
sg1797
g1807
sg1800
S'p'
sg1801
(lp1812
S'noob noob statue'
p1813
aS'bfg-9k'
p1814
asg1805
S'A drink by ricks, for ricks.'
p1815
sssS'222'
p1816
(dp1817
S'0'
(dp1818
S'1'
(dp1819
S'1'
(dp1820
S'ME'
p1821
S'Y'
sS'Is_Trap'
p1822
S'Y'
sS'traps'
p1823
(dp1824
S'Is_Trap'
p1825
S'Y'
sS'push lever'
p1826
(dp1827
S'item'
p1828
(dp1829
sS'Trap_Trigger_Phrase'
p1830
g1826
sS'SD'
p1831
S'N'
sS'trap_class'
p1832
S'sd'
p1833
sS'Trap_Portal_MSG'
p1834
S'You push the lever and a hidden door opens in the rocks.'
p1835
ssS'push level'
p1836
(dp1837
S'item'
p1838
(dp1839
sS'Trap_Trigger_Phrase'
p1840
g1836
sS'trap_class'
p1841
S'T'
sS'Trap_Portal_MSG'
p1842
S'trap'
p1843
ssg1834
S'You push the level and A secret door opens iin the air to the north.'
p1844
ssS'MD'
p1845
S'N'
sS'keys'
p1846
(dp1847
S'NK'
p1848
S''
sS'DK'
p1849
S''
sS'EK'
p1850
S''
sS'WK'
p1851
S''
sS'SK'
p1852
S''
sS'UK'
p1853
S''
ssS'items'
p1854
(dp1855
sS'MN'
p1856
S'Y'
sS'Room_title'
p1857
S'Further Desert'
p1858
sS'MU'
p1859
S'N'
sS'MW'
p1860
S'Y'
sS'objects'
p1861
(dp1862
S'pile of rocks'
p1863
S'A large pile of rocks, behind it you see a level sticking out of the ground.'
p1864
ssS'MS'
p1865
S'Y'
sS'Room_Description'
p1866
S'Your deep in the desert now. Your thirst is over powwering.'
p1867
sS'monsters'
p1868
(dp1869
ssS'0'
(dp1870
g1821
S'Y'
sg1822
S'n'
sg1823
(dp1871
sg1845
S'N'
sg1846
(dp1872
g1848
S''
sg1849
S''
sg1850
S''
sg1851
S''
sg1852
S''
sg1853
S''
ssg1854
(dp1873
sg1856
S'Y'
sg1857
S'More Desert'
p1874
sg1859
S'N'
sg1860
S'Y'
sg1861
(dp1875
sg1865
S'Y'
sg1866
S'You continue to wander the desert. So thirsty.'
p1876
sg1868
(dp1877
ssS'2'
(dp1878
S'ME'
p1879
S'N'
sS'Is_Trap'
p1880
S'n'
sS'traps'
p1881
(dp1882
sS'MD'
p1883
S'N'
sS'keys'
p1884
(dp1885
S'NK'
p1886
S''
sS'DK'
p1887
S''
sS'EK'
p1888
S''
sS'WK'
p1889
S''
sS'SK'
p1890
S''
sS'UK'
p1891
S''
ssS'items'
p1892
(dp1893
sS'MN'
p1894
S'Y'
sS'Room_title'
p1895
S'Still more Desert'
p1896
sS'MU'
p1897
S'N'
sS'MW'
p1898
S'Y'
sS'objects'
p1899
(dp1900
sS'MS'
p1901
S'Y'
sS'Room_Description'
p1902
S"You must be lost. It's ok to check the dgps. Where were you going anyways, is that a llama? "
p1903
sS'monsters'
p1904
(dp1905
ssS'-1'
p1906
(dp1907
S'ME'
p1908
S'Y'
sS'Is_Trap'
p1909
S'n'
sS'traps'
p1910
(dp1911
sS'MD'
p1912
S'N'
sS'keys'
p1913
(dp1914
S'NK'
p1915
S''
sS'DK'
p1916
S''
sS'EK'
p1917
S''
sS'WK'
p1918
S''
sS'SK'
p1919
S''
sS'UK'
p1920
S''
ssS'items'
p1921
(dp1922
sS'MN'
p1923
S'Y'
sS'Room_title'
p1924
S'The Endless Desert'
p1925
sS'MU'
p1926
S'N'
sS'MW'
p1927
S'Y'
sS'objects'
p1928
(dp1929
sS'MS'
p1930
S'Y'
sS'Room_Description'
p1931
S'This desert seems endless. But your blocked in by rocks.'
p1932
sS'monsters'
p1933
(dp1934
ssS'-2'
p1935
(dp1936
S'ME'
p1937
S'Y'
sS'Is_Trap'
p1938
S'n'
sS'traps'
p1939
(dp1940
sS'MD'
p1941
S'N'
sS'keys'
p1942
(dp1943
S'NK'
p1944
S''
sS'DK'
p1945
S''
sS'EK'
p1946
S''
sS'WK'
p1947
S''
sS'SK'
p1948
S''
sS'UK'
p1949
S''
ssS'items'
p1950
(dp1951
sS'MN'
p1952
S'Y'
sS'Room_title'
p1953
S'Desert landscape'
p1954
sS'MU'
p1955
S'N'
sS'MW'
p1956
S'N'
sS'objects'
p1957
(dp1958
sS'MS'
p1959
S'Y'
sS'Room_Description'
p1960
S'You wander the desert, wishing you had water.'
p1961
sS'monsters'
p1962
(dp1963
sssS'0'
(dp1964
S'1'
(dp1965
g1821
S'Y'
sg1822
S'n'
sg1823
(dp1966
sg1845
S'N'
sg1846
(dp1967
g1848
S''
sg1849
S''
sg1850
S''
sg1851
S''
sg1852
S''
sg1853
S''
ssg1854
(dp1968
sg1856
S'Y'
sg1857
S'Even more desert'
p1969
sg1859
S'N'
sg1860
S'Y'
sg1861
(dp1970
sg1865
S'Y'
sg1866
S'The desert seems endless. Must find water.'
p1971
sg1868
(dp1972
ssS'0'
(dp1973
g1821
S'Y'
sg1822
S'n'
sg1823
(dp1974
sg1845
S'N'
sg1846
(dp1975
g1848
S''
sg1849
S''
sg1850
S''
sg1851
S''
sg1852
S''
sg1853
S''
ssg1854
(dp1976
sg1856
S'Y'
sg1857
S'A Baren Desert'
p1977
sg1859
S'N'
sg1860
S'Y'
sg1861
(dp1978
sg1865
S'Y'
sg1866
S'You look out on a barren desert landscape. Your extreemly thirsty.'
p1979
sg1868
(dp1980
ssS'2'
(dp1981
g1879
S'N'
sg1880
S'n'
sg1881
(dp1982
sg1883
S'N'
sg1884
(dp1983
g1886
S''
sg1887
S''
sg1888
S''
sg1889
S''
sg1890
S''
sg1891
S''
ssg1892
(dp1984
sg1894
S'Y'
sg1895
S'Yet more Desert'
p1985
sg1897
S'N'
sg1898
S'Y'
sg1899
(dp1986
sg1901
S'Y'
sg1902
S"Maybe you're lost. People get lost in the desert. It doesn't turn out well. At least you have a portal gun."
p1987
sg1904
(dp1988
ssS'-1'
p1989
(dp1990
S'ME'
p1991
S'Y'
sS'Is_Trap'
p1992
S'n'
sS'traps'
p1993
(dp1994
sS'MD'
p1995
S'N'
sS'keys'
p1996
(dp1997
S'NK'
p1998
S''
sS'DK'
p1999
S''
sS'EK'
p2000
S''
sS'WK'
p2001
S''
sS'SK'
p2002
S''
sS'UK'
p2003
S''
ssS'items'
p2004
(dp2005
sS'MN'
p2006
S'Y'
sS'Room_title'
p2007
S'Even More desert'
p2008
sS'MU'
p2009
S'N'
sS'MW'
p2010
S'Y'
sS'objects'
p2011
(dp2012
sS'MS'
p2013
S'Y'
sS'Room_Description'
p2014
S'It seems you could wander here forever. The desert is endless.'
p2015
sS'monsters'
p2016
(dp2017
ssS'-2'
p2018
(dp2019
g1937
S'Y'
sg1938
S'n'
sg1939
(dp2020
sg1941
S'N'
sg1942
(dp2021
g1944
S''
sg1945
S''
sg1946
S''
sg1947
S''
sg1948
S''
sg1949
S''
ssg1950
(dp2022
sg1952
S'Y'
sg1953
S'Even more desert'
p2023
sg1955
S'N'
sg1956
S'N'
sg1957
(dp2024
sg1959
S'Y'
sg1960
S'You could get lost in this place. It just seems to be a barren desert.'
p2025
sg1962
(dp2026
sssS'2'
(dp2027
S'1'
(dp2028
g1821
S'N'
sg1822
S'Y'
sg1823
(dp2029
g1822
S'y'
sS'flip hidden switch'
p2030
(dp2031
S'item'
p2032
(dp2033
sS'Trap_Trigger_Phrase'
p2034
g2030
sS'Trap_Portal_Dest'
p2035
(lp2036
S'222'
p2037
aS'-1'
p2038
aS'0'
aS'0'
asg2030
(dp2039
S'Trap_Portal_Dest'
p2040
(lp2041
S'222'
p2042
aS'-1'
p2043
aS'0'
aS'0'
asS'Trap_Trigger_Phrase'
p2044
g2030
sS'trap_class'
p2045
S'p'
sS'Trap_Portal_MSG'
p2046
S'You flip the hidden switch and are transported to bird persons home.'
p2047
ssS'Trap_Portal_MSG'
p2048
S'You Flip the switch and you are teleported to bird persons home.'
p2049
sS'trap_class'
p2050
S'P'
sS'SD'
p2051
S'X'
sssg1845
S'N'
sg1846
(dp2052
g1848
S''
sg1849
S''
sg1850
S''
sg1851
S''
sg1852
S''
sg1853
S''
ssg1854
(dp2053
sg1856
S'N'
sg1857
S'A Secret room'
p2054
sg1859
S'N'
sg1860
S'N'
sg1861
(dp2055
S'pile of rocks'
p2056
S'You look at the rocks, there seems to be switch hidden under the rocks.'
p2057
ssg1865
S'N'
sg1866
S'Theres a pile of rocks on the ground.'
p2058
sg1868
(dp2059
ssS'0'
(dp2060
S'ME'
p2061
S'N'
sS'Is_Trap'
p2062
S'n'
sS'traps'
p2063
(dp2064
sS'MD'
p2065
S'N'
sS'keys'
p2066
(dp2067
S'NK'
p2068
S''
sS'DK'
p2069
S''
sS'EK'
p2070
S''
sS'WK'
p2071
S''
sS'SK'
p2072
S''
sS'UK'
p2073
S''
ssS'items'
p2074
(dp2075
sS'MN'
p2076
S'N'
sS'Room_title'
p2077
S'More desert'
p2078
sS'MU'
p2079
S'N'
sS'MW'
p2080
S'Y'
sS'objects'
p2081
(dp2082
sS'MS'
p2083
S'Y'
sS'Room_Description'
p2084
S"Even more desert. Why didn't you pack water?"
p2085
sS'monsters'
p2086
(dp2087
ssS'2'
(dp2088
S'ME'
p2089
S'N'
sS'Is_Trap'
p2090
S'n'
sS'traps'
p2091
(dp2092
sS'MD'
p2093
S'N'
sS'keys'
p2094
(dp2095
S'NK'
p2096
S''
sS'DK'
p2097
S''
sS'EK'
p2098
S''
sS'WK'
p2099
S''
sS'SK'
p2100
S''
sS'UK'
p2101
S''
ssS'items'
p2102
(dp2103
sS'MN'
p2104
S'N'
sS'Room_title'
p2105
S'Lost in the desert'
p2106
sS'MU'
p2107
S'N'
sS'MW'
p2108
S'N'
sS'objects'
p2109
(dp2110
sS'MS'
p2111
S'Y'
sS'Room_Description'
p2112
S"You're lost. That's it, time to call Rick. "
p2113
sS'monsters'
p2114
(dp2115
ssS'-1'
p2116
(dp2117
g2061
S'Y'
sg2062
S'n'
sg2063
(dp2118
sg2065
S'N'
sg2066
(dp2119
g2068
S''
sg2069
S''
sg2070
S''
sg2071
S''
sg2072
S''
sg2073
S''
ssg2074
(dp2120
sg2076
S'N'
sg2077
S'Even More Desert'
p2121
sg2079
S'N'
sg2080
S'Y'
sg2081
(dp2122
sg2083
S'Y'
sg2084
S'You are in an endless desert, surrounded by steep cliffs.'
p2123
sg2086
(dp2124
ssS'-2'
p2125
(dp2126
g2061
S'Y'
sg2062
S'n'
sg2063
(dp2127
sg2065
S'N'
sg2066
(dp2128
g2068
S''
sg2069
S''
sg2070
S''
sg2071
S''
sg2072
S''
sg2073
S''
ssg2074
(dp2129
sg2076
S'N'
sg2077
S'Yet more desert'
p2130
sg2079
S'N'
sg2080
S'N'
sg2081
(dp2131
sg2083
S'Y'
sg2084
S"You'd think water would be a interdemionsal travelers mainstay, but somehow you forgo. There is desert all around."
p2132
sg2086
(dp2133
sssS'-1'
p2134
(dp2135
S'1'
(dp2136
S'ME'
p2137
S'Y'
sg1825
S'n'
sS'traps'
p2138
(dp2139
sS'MD'
p2140
S'N'
sS'keys'
p2141
(dp2142
S'NK'
p2143
S''
sS'DK'
p2144
S''
sS'EK'
p2145
S''
sS'WK'
p2146
S''
sS'SK'
p2147
S''
sS'UK'
p2148
S''
ssS'items'
p2149
(dp2150
sS'MN'
p2151
S'Y'
sS'Room_title'
p2152
S'Even More Desert'
p2153
sS'MU'
p2154
S'N'
sS'MW'
p2155
S'Y'
sS'objects'
p2156
(dp2157
sS'MS'
p2158
S'Y'
sS'Room_Description'
p2159
S'The landscape is barren. The sun is blazing hot.'
p2160
sS'monsters'
p2161
(dp2162
ssS'0'
(dp2163
g1821
S'Y'
sg1822
S'n'
sg1823
(dp2164
sg1845
S'N'
sg1846
(dp2165
g1848
S''
sg1849
S''
sg1850
S''
sg1851
S''
sg1852
S''
sg1853
S''
ssg1854
(dp2166
sg1856
S'Y'
sg1857
S'Even More Desert'
p2167
sg1859
S'N'
sg1860
S'Y'
sg1861
(dp2168
sg1865
S'Y'
sg1866
S'You are kinda getting tired of the desert theme, if only you had some type of teleportation device.'
p2169
sg1868
(dp2170
ssS'2'
(dp2171
g1879
S'N'
sg1880
S'n'
sg1881
(dp2172
sg1883
S'N'
sg1884
(dp2173
g1886
S''
sg1887
S''
sg1888
S''
sg1889
S''
sg1890
S''
sg1891
S''
ssg1892
(dp2174
sg1894
S'Y'
sg1895
S'Even more Desert'
p2175
sg1897
S'N'
sg1898
S'Y'
sg1899
(dp2176
sg1901
S'Y'
sg1902
S"You're wandering the desert. You feel like Moses. Got to find someplace to cool off."
p2177
sg1904
(dp2178
ssS'-1'
p2179
(dp2180
g1908
S'Y'
sg1909
S'n'
sg1910
(dp2181
sg1912
S'N'
sg1913
(dp2182
g1915
S''
sg1916
S''
sg1917
S''
sg1918
S''
sg1919
S''
sg1920
S''
ssg1921
(dp2183
sg1923
S'Y'
sg1924
S'The Endless desert.'
p2184
sg1926
S'N'
sg1927
S'Y'
sg1928
(dp2185
sg1930
S'Y'
sg1931
S'The name is apt. But your blocked in by rocks.'
p2186
sg1933
(dp2187
ssS'-2'
p2188
(dp2189
g1937
S'Y'
sg1938
S'n'
sg1939
(dp2190
sg1941
S'N'
sg1942
(dp2191
g1944
S''
sg1945
S''
sg1946
S''
sg1947
S''
sg1948
S''
sg1949
S''
ssg1950
(dp2192
sg1952
S'Y'
sg1953
S'Further desert'
p2193
sg1955
S'N'
sg1956
S'N'
sg1957
(dp2194
sg1959
S'Y'
sg1960
S"A barren desert landscape surrounds you. What you wouldn't give for some water."
p2195
sg1962
(dp2196
sssS'-2'
p2197
(dp2198
S'1'
(dp2199
g1879
S'Y'
sg1880
S'n'
sg1881
(dp2200
sg1883
S'N'
sg1884
(dp2201
g1886
S''
sg1887
S''
sg1888
S''
sg1889
S''
sg1890
S''
sg1891
S''
ssg1892
(dp2202
sg1894
S'Y'
sg1895
S'Further Desert'
p2203
sg1897
S'N'
sg1898
S'Y'
sg1899
(dp2204
sg1901
S'N'
sg1902
S"You are deep in the desert. No water. Don't you have a portal gun or something?"
p2205
sg1904
(dp2206
ssS'0'
(dp2207
g1879
S'Y'
sg1880
S'n'
sg1881
(dp2208
sg1883
S'N'
sg1884
(dp2209
g1886
S''
sg1887
S''
sg1888
S''
sg1889
S''
sg1890
S''
sg1891
S''
ssg1892
(dp2210
sg1894
S'Y'
sg1895
S'Still more Desert'
p2211
sg1897
S'N'
sg1898
S'Y'
sg1899
(dp2212
sg1901
S'N'
sg1902
S"You're still in the Desert. Nothing around. No Water. What were you thinking?"
p2213
sg1904
(dp2214
ssS'2'
(dp2215
g1879
S'N'
sg1880
S'n'
sg1881
(dp2216
sg1883
S'N'
sg1884
(dp2217
g1886
S''
sg1887
S''
sg1888
S''
sg1889
S''
sg1890
S''
sg1891
S''
ssg1892
(dp2218
sg1894
S'Y'
sg1895
S'Deep Desert'
p2219
sg1897
S'N'
sg1898
S'Y'
sg1899
(dp2220
sg1901
S'N'
sg1902
S"Deep in the Desert. You can't keep up like this. It's so hot. All this, just to die on a lifeless desert planet."
p2221
sg1904
(dp2222
ssS'-1'
p2223
(dp2224
g1879
S'Y'
sg1880
S'n'
sg1881
(dp2225
sg1883
S'N'
sg1884
(dp2226
g1886
S''
sg1887
S''
sg1888
S''
sg1889
S''
sg1890
S''
sg1891
S''
ssg1892
(dp2227
sg1894
S'Y'
sg1895
S'Even more desert'
p2228
sg1897
S'N'
sg1898
S'Y'
sg1899
(dp2229
sg1901
S'N'
sg1902
S"Your still in the desert. You'd think someone would hie a base out here or something."
p2230
sg1904
(dp2231
ssS'-2'
p2232
(dp2233
g1937
S'Y'
sg1938
S'n'
sg1939
(dp2234
sg1941
S'N'
sg1942
(dp2235
g1944
S''
sg1945
S''
sg1946
S''
sg1947
S''
sg1948
S''
sg1949
S''
ssg1950
(dp2236
sg1952
S'Y'
sg1953
S'Deserted Desert'
p2237
sg1955
S'N'
sg1956
S'N'
sg1957
(dp2238
sg1959
S'N'
sg1960
S"You're in a deserted desert. Its completely barren. If only you packed water."
p2239
sg1962
(dp2240
ssssS'-1'
p2241
(dp2242
S'0'
(dp2243
S'0'
(dp2244
g1821
S'N'
sg1822
S'Y'
sg1823
(dp2245
S'Is_Trap'
p2246
S'Y'
sS'Help birdperson'
p2247
(dp2248
S'item'
p2249
(dp2250
sS'Trap_Trigger_Phrase'
p2251
g2247
sS'trap_class'
p2252
S'T'
sS'Trap_Portal_MSG'
p2253
S'trap'
p2254
ssS'help birdperson'
p2255
(dp2256
g2249
(dp2257
sg2251
g2255
sg2252
S'T'
sg2253
g2254
ssg2253
S'You agreed to help Birdperson with their situation with the Federation. You portal to a Federation StarShip to get to work.'
p2258
ssg1845
S'N'
sg1846
(dp2259
g1848
S''
sg1849
S''
sg1850
S''
sg1851
S''
sg1852
S''
sg1853
S''
ssg1854
(dp2260
sg1856
S'N'
sg1857
S'Bird persons Home'
p2261
sg1859
S'N'
sg1860
S'N'
sg1861
(dp2262
S'birdpersons desk'
p2263
S'Its birdpersons desk. There are papers on it.'
p2264
ssg1865
S'N'
sg1866
S'You are in Birdpersons home. There is a desk with papers scattered on it. Birdperson asks for your help.'
p2265
sg1868
(dp2266
ssssS'monsters'
p2267
(dp2268
S'hammer-ai'
p2269
(dp2270
S'stats'
p2271
(lp2272
I2282
aI586
aI687
asS'name'
p2273
g2269
sS'description'
p2274
S'Your best bug Hammer-ai'
p2275
ssS'arachni-beth'
p2276
(dp2277
g2271
(lp2278
I2152
aI208
aI971
asg2273
g2276
sg2274
S'An Arcana-Beth.'
p2279
ssS'jerry slug'
p2280
(dp2281
g2271
(lp2282
I2089
aI360
aI249
asg2273
g2280
sg2274
S'A Jerry Slug.'
p2283
ssS'scary terry minion'
p2284
(dp2285
g2271
(lp2286
I264
aI98
aI99
asg2273
g2284
sg2274
S'A minion'
p2287
ssS'federation bug'
p2288
(dp2289
S'drop_unq'
p2290
S'Y'
sS'stats'
p2291
(lp2292
S'1000'
p2293
aS'100'
p2294
aS'100'
p2295
asS'unq_item'
p2296
(dp2297
S'lvl9 passcode'
p2298
(dp2299
S'item_name'
p2300
g2298
sS'item_value'
p2301
S'0'
sS'item_class'
p2302
S'K'
sS'item_use_msg'
p2303
S'You read the paper.'
p2304
sS'item_description'
p2305
S'A slip of paper with the lvl9 passcode on it.'
p2306
sssS'description'
p2307
S'An Agent of the Federation. Its mandibals are twitching.'
p2308
sS'name'
p2309
g2288
sssS'store'
p2310
(dp2311
S'items'
p2312
(dp2313
S'strong health potion'
p2314
(dp2315
S'item_name'
p2316
g2314
sS'item_value'
p2317
S'73'
p2318
sS'item_class'
p2319
S'P'
sS'item_description'
p2320
S'A big health Potion'
p2321
sS'item_cost'
p2322
I50
ssS'eye holes'
p2323
(dp2324
g2316
g2323
sg2317
S'200'
p2325
sg2319
S'p'
sS'item_use_msg'
p2326
S'you eat eye holes.'
p2327
sg2320
S'eye holes'
p2328
ssS'portal fluid'
p2329
(dp2330
g2316
g2329
sg2317
S'11'
p2331
sg2319
S'PF'
p2332
sg2320
g2329
sg2322
I50
ssS'big shmeckles'
p2333
(dp2334
g2316
g2333
sg2317
S'296'
p2335
sg2319
S'G'
sg2320
S'A big Shmeckle!'
p2336
sg2322
I50
ssS'shmeckles'
p2337
(dp2338
g2316
S'some shmeckles'
p2339
sg2317
S'66'
p2340
sg2319
S'G'
sg2320
S'A small pile of shmeckles'
p2341
sg2322
I50
ssS'big portal fluid'
p2342
(dp2343
g2316
g2342
sg2317
S'39'
p2344
sg2319
g2332
sg2320
S'A big portal fluid.'
p2345
sg2322
I50
ssS'health potion'
p2346
(dp2347
g2316
g2346
sg2317
S'27'
p2348
sg2319
S'P'
sg2320
S'A health Potion'
p2349
sg2322
I50
ssssS'items'
p2350
(dp2351
S'strong health potion'
p2352
(dp2353
S'item_name'
p2354
g2352
sS'item_value'
p2355
S'55'
p2356
sS'item_class'
p2357
S'P'
sS'item_description'
p2358
S'A big health Potion'
p2359
ssS'portal fluid'
p2360
(dp2361
g2354
g2360
sg2355
S'10'
p2362
sg2357
S'PF'
p2363
sg2358
g2360
ssS'big shmeckles'
p2364
(dp2365
g2354
g2364
sg2355
S'209'
p2366
sg2357
S'G'
sg2358
S'A big Shmeckle!'
p2367
ssS'shmeckles'
p2368
(dp2369
g2354
S'some shmeckles'
p2370
sg2355
S'100'
p2371
sg2357
S'G'
sg2358
S'A small pile of shmeckles'
p2372
ssS'big portal fluid'
p2373
(dp2374
g2354
g2373
sg2355
S'47'
p2375
sg2357
g2363
sg2358
S'A big portal fluid.'
p2376
ssS'health potion'
p2377
(dp2378
g2354
g2377
sg2355
S'32'
p2379
sg2357
S'P'
sg2358
S'A health Potion'
p2380
sssss.